libopencv_calib3d.so.4.2:_ZN2cv10StereoSGBM6createEiiiiiiiiiii
libopencv_calib3d.so.4.2:_ZN2cv11RQDecomp3x3ERKNS_11_InputArrayERKNS_12_OutputArrayES5_S5_S5_S5_
libopencv_calib3d.so.4.2:_ZN2cv11matMulDerivERKNS_11_InputArrayES2_RKNS_12_OutputArrayES5_
libopencv_calib3d.so.4.2:_ZN2cv11recoverPoseERKNS_11_InputArrayES2_S2_RKNS_12_OutputArrayES5_dNS_6Point_IdEERKNS_17_InputOutputArrayE
libopencv_calib3d.so.4.2:_ZN2cv11recoverPoseERKNS_11_InputArrayES2_S2_S2_RKNS_12_OutputArrayES5_RKNS_17_InputOutputArrayE
libopencv_calib3d.so.4.2:_ZN2cv11recoverPoseERKNS_11_InputArrayES2_S2_S2_RKNS_12_OutputArrayES5_dRKNS_17_InputOutputArrayES5_
libopencv_calib3d.so.4.2:_ZN2cv13drawFrameAxesERKNS_17_InputOutputArrayERKNS_11_InputArrayES5_S5_S5_fi
libopencv_calib3d.so.4.2:_ZN2cv13projectPointsERKNS_11_InputArrayES2_S2_S2_S2_RKNS_12_OutputArrayES5_d
libopencv_calib3d.so.4.2:_ZN2cv13stereoRectifyERKNS_11_InputArrayES2_S2_S2_NS_5Size_IiEES2_S2_RKNS_12_OutputArrayES7_S7_S7_S7_idS4_PNS_5Rect_IiEESA_
libopencv_calib3d.so.4.2:_ZN2cv14correctMatchesERKNS_11_InputArrayES2_S2_RKNS_12_OutputArrayES5_
libopencv_calib3d.so.4.2:_ZN2cv14filterSpecklesERKNS_17_InputOutputArrayEdidS2_
libopencv_calib3d.so.4.2:_ZN2cv14findHomographyERKNS_11_InputArrayES2_RKNS_12_OutputArrayEid
libopencv_calib3d.so.4.2:_ZN2cv14findHomographyERKNS_11_InputArrayES2_idRKNS_12_OutputArrayEid
libopencv_calib3d.so.4.2:_ZN2cv14solvePnPRansacERKNS_11_InputArrayES2_S2_S2_RKNS_12_OutputArrayES5_bifdS5_i
libopencv_calib3d.so.4.2:_ZN2cv15calibrateCameraERKNS_11_InputArrayES2_NS_5Size_IiEERKNS_17_InputOutputArrayES7_RKNS_12_OutputArrayESA_SA_SA_SA_iNS_12TermCriteriaE
libopencv_calib3d.so.4.2:_ZN2cv15calibrateCameraERKNS_11_InputArrayES2_NS_5Size_IiEERKNS_17_InputOutputArrayES7_RKNS_12_OutputArrayESA_iNS_12TermCriteriaE
libopencv_calib3d.so.4.2:_ZN2cv15checkChessboardERKNS_11_InputArrayENS_5Size_IiEE
libopencv_calib3d.so.4.2:_ZN2cv15findCirclesGridERKNS_11_InputArrayENS_5Size_IiEERKNS_12_OutputArrayEiRKNS_3PtrINS_9Feature2DEEE
libopencv_calib3d.so.4.2:_ZN2cv15findCirclesGridERKNS_11_InputArrayENS_5Size_IiEERKNS_12_OutputArrayEiRKNS_3PtrINS_9Feature2DEEERKNS_27CirclesGridFinderParametersE
libopencv_calib3d.so.4.2:_ZN2cv15sampsonDistanceERKNS_11_InputArrayES2_S2_
libopencv_calib3d.so.4.2:_ZN2cv15solvePnPGenericERKNS_11_InputArrayES2_S2_S2_RKNS_12_OutputArrayES5_bNS_14SolvePnPMethodES2_S2_S5_
libopencv_calib3d.so.4.2:_ZN2cv15stereoCalibrateERKNS_11_InputArrayES2_S2_RKNS_17_InputOutputArrayES5_S5_S5_NS_5Size_IiEERKNS_12_OutputArrayESA_SA_SA_iNS_12TermCriteriaE
libopencv_calib3d.so.4.2:_ZN2cv15stereoCalibrateERKNS_11_InputArrayES2_S2_RKNS_17_InputOutputArrayES5_S5_S5_NS_5Size_IiEES5_S5_RKNS_12_OutputArrayESA_SA_iNS_12TermCriteriaE
libopencv_calib3d.so.4.2:_ZN2cv15undistortPointsERKNS_11_InputArrayERKNS_12_OutputArrayES2_S2_S2_S2_
libopencv_calib3d.so.4.2:_ZN2cv15undistortPointsERKNS_11_InputArrayERKNS_12_OutputArrayES2_S2_S2_S2_NS_12TermCriteriaE
libopencv_calib3d.so.4.2:_ZN2cv16calibrateHandEyeERKNS_11_InputArrayES2_S2_S2_RKNS_12_OutputArrayES5_NS_24HandEyeCalibrationMethodE
libopencv_calib3d.so.4.2:_ZN2cv16estimateAffine2DERKNS_11_InputArrayES2_RKNS_12_OutputArrayEidmdm
libopencv_calib3d.so.4.2:_ZN2cv16estimateAffine3DERKNS_11_InputArrayES2_RKNS_12_OutputArrayES5_dd
libopencv_calib3d.so.4.2:_ZN2cv16findEssentialMatERKNS_11_InputArrayES2_S2_iddRKNS_12_OutputArrayE
libopencv_calib3d.so.4.2:_ZN2cv16findEssentialMatERKNS_11_InputArrayES2_dNS_6Point_IdEEiddRKNS_12_OutputArrayE
libopencv_calib3d.so.4.2:_ZN2cv16solvePnPRefineLMERKNS_11_InputArrayES2_S2_S2_RKNS_17_InputOutputArrayES5_NS_12TermCriteriaE
libopencv_calib3d.so.4.2:_ZN2cv17calibrateCameraROERKNS_11_InputArrayES2_NS_5Size_IiEEiRKNS_17_InputOutputArrayES7_RKNS_12_OutputArrayESA_SA_SA_SA_SA_SA_iNS_12TermCriteriaE
libopencv_calib3d.so.4.2:_ZN2cv17calibrateCameraROERKNS_11_InputArrayES2_NS_5Size_IiEEiRKNS_17_InputOutputArrayES7_RKNS_12_OutputArrayESA_SA_iNS_12TermCriteriaE
libopencv_calib3d.so.4.2:_ZN2cv17rectify3CollinearERKNS_11_InputArrayES2_S2_S2_S2_S2_S2_S2_NS_5Size_IiEES2_S2_S2_S2_RKNS_12_OutputArrayES7_S7_S7_S7_S7_S7_dS4_PNS_5Rect_IiEESA_i
libopencv_calib3d.so.4.2:_ZN2cv17solvePnPRefineVVSERKNS_11_InputArrayES2_S2_S2_RKNS_17_InputOutputArrayES5_NS_12TermCriteriaEd
libopencv_calib3d.so.4.2:_ZN2cv17triangulatePointsERKNS_11_InputArrayES2_S2_S2_RKNS_12_OutputArrayE
libopencv_calib3d.so.4.2:_ZN2cv17validateDisparityERKNS_17_InputOutputArrayERKNS_11_InputArrayEiii
libopencv_calib3d.so.4.2:_ZN2cv18findFundamentalMatERKNS_11_InputArrayES2_RKNS_12_OutputArrayEidd
libopencv_calib3d.so.4.2:_ZN2cv18findFundamentalMatERKNS_11_InputArrayES2_iddRKNS_12_OutputArrayE
libopencv_calib3d.so.4.2:_ZN2cv18initCameraMatrix2DERKNS_11_InputArrayES2_NS_5Size_IiEEd
libopencv_calib3d.so.4.2:_ZN2cv18reprojectImageTo3DERKNS_11_InputArrayERKNS_12_OutputArrayES2_bi
libopencv_calib3d.so.4.2:_ZN2cv20getValidDisparityROIENS_5Rect_IiEES1_iii
libopencv_calib3d.so.4.2:_ZN2cv20initWideAngleProjMapERKNS_11_InputArrayES2_NS_5Size_IiEEiiRKNS_12_OutputArrayES7_NS_14UndistortTypesEd
libopencv_calib3d.so.4.2:_ZN2cv21decomposeEssentialMatERKNS_11_InputArrayERKNS_12_OutputArrayES5_S5_
libopencv_calib3d.so.4.2:_ZN2cv21drawChessboardCornersERKNS_17_InputOutputArrayENS_5Size_IiEERKNS_11_InputArrayEb
libopencv_calib3d.so.4.2:_ZN2cv21find4QuadCornerSubpixERKNS_11_InputArrayERKNS_17_InputOutputArrayENS_5Size_IiEE
libopencv_calib3d.so.4.2:_ZN2cv21findChessboardCornersERKNS_11_InputArrayENS_5Size_IiEERKNS_12_OutputArrayEi
libopencv_calib3d.so.4.2:_ZN2cv22decomposeHomographyMatERKNS_11_InputArrayES2_RKNS_12_OutputArrayES5_S5_
libopencv_calib3d.so.4.2:_ZN2cv23calibrationMatrixValuesERKNS_11_InputArrayENS_5Size_IiEEddRdS5_S5_RNS_6Point_IdEES5_
libopencv_calib3d.so.4.2:_ZN2cv23estimateAffinePartial2DERKNS_11_InputArrayES2_RKNS_12_OutputArrayEidmdm
libopencv_calib3d.so.4.2:_ZN2cv23findChessboardCornersSBERKNS_11_InputArrayENS_5Size_IiEERKNS_12_OutputArrayEi
libopencv_calib3d.so.4.2:_ZN2cv23initUndistortRectifyMapERKNS_11_InputArrayES2_S2_S2_NS_5Size_IiEEiRKNS_12_OutputArrayES7_
libopencv_calib3d.so.4.2:_ZN2cv24convertPointsHomogeneousERKNS_11_InputArrayERKNS_12_OutputArrayE
libopencv_calib3d.so.4.2:_ZN2cv25computeCorrespondEpilinesERKNS_11_InputArrayEiS2_RKNS_12_OutputArrayE
libopencv_calib3d.so.4.2:_ZN2cv25decomposeProjectionMatrixERKNS_11_InputArrayERKNS_12_OutputArrayES5_S5_S5_S5_S5_S5_
libopencv_calib3d.so.4.2:_ZN2cv25getDefaultNewCameraMatrixERKNS_11_InputArrayENS_5Size_IiEEb
libopencv_calib3d.so.4.2:_ZN2cv25getOptimalNewCameraMatrixERKNS_11_InputArrayES2_NS_5Size_IiEEdS4_PNS_5Rect_IiEEb
libopencv_calib3d.so.4.2:_ZN2cv25stereoRectifyUncalibratedERKNS_11_InputArrayES2_S2_NS_5Size_IiEERKNS_12_OutputArrayES7_d
libopencv_calib3d.so.4.2:_ZN2cv26convertPointsToHomogeneousERKNS_11_InputArrayERKNS_12_OutputArrayE
libopencv_calib3d.so.4.2:_ZN2cv27CirclesGridFinderParametersC1Ev
libopencv_calib3d.so.4.2:_ZN2cv27CirclesGridFinderParametersC2Ev
libopencv_calib3d.so.4.2:_ZN2cv28convertPointsFromHomogeneousERKNS_11_InputArrayERKNS_12_OutputArrayE
libopencv_calib3d.so.4.2:_ZN2cv30createLMeDSPointSetRegistratorERKNS_3PtrINS_19PointSetRegistrator8CallbackEEEidi
libopencv_calib3d.so.4.2:_ZN2cv31createRANSACPointSetRegistratorERKNS_3PtrINS_19PointSetRegistrator8CallbackEEEiddi
libopencv_calib3d.so.4.2:_ZN2cv40filterHomographyDecompByVisibleRefpointsERKNS_11_InputArrayES2_S2_S2_RKNS_12_OutputArrayES2_
libopencv_calib3d.so.4.2:_ZN2cv7fisheye13distortPointsERKNS_11_InputArrayERKNS_12_OutputArrayES3_S3_d
libopencv_calib3d.so.4.2:_ZN2cv7fisheye13projectPointsERKNS_11_InputArrayERKNS_12_OutputArrayERKNS_7Affine3IdEES3_S3_dS6_
libopencv_calib3d.so.4.2:_ZN2cv7fisheye13projectPointsERKNS_11_InputArrayERKNS_12_OutputArrayES3_S3_S3_S3_dS6_
libopencv_calib3d.so.4.2:_ZN2cv7fisheye13stereoRectifyERKNS_11_InputArrayES3_S3_S3_RKNS_5Size_IiEES3_S3_RKNS_12_OutputArrayESA_SA_SA_SA_iS7_dd
libopencv_calib3d.so.4.2:_ZN2cv7fisheye14undistortImageERKNS_11_InputArrayERKNS_12_OutputArrayES3_S3_S3_RKNS_5Size_IiEE
libopencv_calib3d.so.4.2:_ZN2cv7fisheye15stereoCalibrateERKNS_11_InputArrayES3_S3_RKNS_17_InputOutputArrayES6_S6_S6_NS_5Size_IiEERKNS_12_OutputArrayESB_iNS_12TermCriteriaE
libopencv_calib3d.so.4.2:_ZN2cv7fisheye15undistortPointsERKNS_11_InputArrayERKNS_12_OutputArrayES3_S3_S3_S3_
libopencv_calib3d.so.4.2:_ZN2cv7fisheye23initUndistortRectifyMapERKNS_11_InputArrayES3_S3_S3_RKNS_5Size_IiEEiRKNS_12_OutputArrayESA_
libopencv_calib3d.so.4.2:_ZN2cv7fisheye42estimateNewCameraMatrixForUndistortRectifyERKNS_11_InputArrayES3_RKNS_5Size_IiEES3_RKNS_12_OutputArrayEdS7_d
libopencv_calib3d.so.4.2:_ZN2cv7fisheye9calibrateERKNS_11_InputArrayES3_RKNS_5Size_IiEERKNS_17_InputOutputArrayESA_RKNS_12_OutputArrayESD_iNS_12TermCriteriaE
libopencv_calib3d.so.4.2:_ZN2cv8LMSolver6createERKNS_3PtrINS0_8CallbackEEEi
libopencv_calib3d.so.4.2:_ZN2cv8LMSolver6createERKNS_3PtrINS0_8CallbackEEEid
libopencv_calib3d.so.4.2:_ZN2cv8StereoBM6createEii
libopencv_calib3d.so.4.2:_ZN2cv8internal15IntrinsicParams4InitERKNS_3VecIdLi2EEES5_RKNS2_IdLi4EEERKd
libopencv_calib3d.so.4.2:_ZN2cv8internal15IntrinsicParamsC1ENS_3VecIdLi2EEES3_NS2_IdLi4EEEd
libopencv_calib3d.so.4.2:_ZN2cv8internal15IntrinsicParamsC1Ev
libopencv_calib3d.so.4.2:_ZN2cv8internal15IntrinsicParamsC2ENS_3VecIdLi2EEES3_NS2_IdLi4EEEd
libopencv_calib3d.so.4.2:_ZN2cv8internal15IntrinsicParamsC2Ev
libopencv_calib3d.so.4.2:_ZN2cv8internal15IntrinsicParamsaSERKNS_3MatE
libopencv_calib3d.so.4.2:_ZN2cv8internal15IntrinsicParamsplERKNS_3MatE
libopencv_calib3d.so.4.2:_ZN2cv8internal15NormalizePixelsERKNS_3MatERKNS0_15IntrinsicParamsE
libopencv_calib3d.so.4.2:_ZN2cv8internal17ComputeHomographyENS_3MatES1_
libopencv_calib3d.so.4.2:_ZN2cv8internal21EstimateUncertaintiesERKNS_11_InputArrayES3_RKNS0_15IntrinsicParamsES3_S3_RS4_RNS_3VecIdLi2EEEdiRd
libopencv_calib3d.so.4.2:_ZN2cv8solveP3PERKNS_11_InputArrayES2_S2_S2_RKNS_12_OutputArrayES5_i
libopencv_calib3d.so.4.2:_ZN2cv8solvePnPERKNS_11_InputArrayES2_S2_S2_RKNS_12_OutputArrayES5_bi
libopencv_calib3d.so.4.2:_ZN2cv9RodriguesERKNS_11_InputArrayERKNS_12_OutputArrayES5_
libopencv_calib3d.so.4.2:_ZN2cv9composeRTERKNS_11_InputArrayES2_S2_S2_RKNS_12_OutputArrayES5_S5_S5_S5_S5_S5_S5_S5_S5_
libopencv_calib3d.so.4.2:_ZN2cv9undistortERKNS_11_InputArrayERKNS_12_OutputArrayES2_S2_S2_
libopencv_calib3d.so.4.2:_ZN9CvLevMarq4initEii14CvTermCriteriab
libopencv_calib3d.so.4.2:_ZN9CvLevMarq4stepEv
libopencv_calib3d.so.4.2:_ZN9CvLevMarq5clearEv
libopencv_calib3d.so.4.2:_ZN9CvLevMarq6updateERPK5CvMatRPS0_S5_
libopencv_calib3d.so.4.2:_ZN9CvLevMarq9updateAltERPK5CvMatRPS0_S5_RPd
libopencv_calib3d.so.4.2:_ZN9CvLevMarqC1Eii14CvTermCriteriab
libopencv_calib3d.so.4.2:_ZN9CvLevMarqC1Ev
libopencv_calib3d.so.4.2:_ZN9CvLevMarqC2Eii14CvTermCriteriab
libopencv_calib3d.so.4.2:_ZN9CvLevMarqC2Ev
libopencv_calib3d.so.4.2:_ZN9CvLevMarqD1Ev
libopencv_calib3d.so.4.2:_ZN9CvLevMarqD2Ev
libopencv_core.so.4.2:_Z10cvIplImageRKN2cv3MatE
libopencv_core.so.4.2:_Z17cvCreateSparseMatRKN2cv9SparseMatE
libopencv_core.so.4.2:_Z6cvCeilRKN2cv10softdoubleE
libopencv_core.so.4.2:_Z6cvCeilRKN2cv9softfloatE
libopencv_core.so.4.2:_Z7cvFloorRKN2cv10softdoubleE
libopencv_core.so.4.2:_Z7cvFloorRKN2cv9softfloatE
libopencv_core.so.4.2:_Z7cvMatNDRKN2cv3MatE
libopencv_core.so.4.2:_Z7cvRoundRKN2cv10softdoubleE
libopencv_core.so.4.2:_Z7cvRoundRKN2cv9softfloatE
libopencv_core.so.4.2:_Z7cvTruncRKN2cv10softdoubleE
libopencv_core.so.4.2:_Z7cvTruncRKN2cv9softfloatE
libopencv_core.so.4.2:_Z9cvRound64RKN2cv10softdoubleE
libopencv_core.so.4.2:_ZN2cv10AsyncArray7releaseEv
libopencv_core.so.4.2:_ZN2cv10AsyncArrayC1ERKS0_
libopencv_core.so.4.2:_ZN2cv10AsyncArrayC1Ev
libopencv_core.so.4.2:_ZN2cv10AsyncArrayC2ERKS0_
libopencv_core.so.4.2:_ZN2cv10AsyncArrayC2Ev
libopencv_core.so.4.2:_ZN2cv10AsyncArrayD1Ev
libopencv_core.so.4.2:_ZN2cv10AsyncArrayD2Ev
libopencv_core.so.4.2:_ZN2cv10AsyncArrayaSERKS0_
libopencv_core.so.4.2:_ZN2cv10PCAComputeERKNS_11_InputArrayERKNS_17_InputOutputArrayERKNS_12_OutputArrayES8_d
libopencv_core.so.4.2:_ZN2cv10PCAComputeERKNS_11_InputArrayERKNS_17_InputOutputArrayERKNS_12_OutputArrayES8_i
libopencv_core.so.4.2:_ZN2cv10PCAComputeERKNS_11_InputArrayERKNS_17_InputOutputArrayERKNS_12_OutputArrayEd
libopencv_core.so.4.2:_ZN2cv10PCAComputeERKNS_11_InputArrayERKNS_17_InputOutputArrayERKNS_12_OutputArrayEi
libopencv_core.so.4.2:_ZN2cv10PCAProjectERKNS_11_InputArrayES2_S2_RKNS_12_OutputArrayE
libopencv_core.so.4.2:_ZN2cv10bitwise_orERKNS_11_InputArrayES2_RKNS_12_OutputArrayES2_
libopencv_core.so.4.2:_ZN2cv10checkRangeERKNS_11_InputArrayEbPNS_6Point_IiEEdd
libopencv_core.so.4.2:_ZN2cv10cvarrToMatEPKvbbiPNS_10AutoBufferIdLm136EEE
libopencv_core.so.4.2:_ZN2cv10fastMallocEm
libopencv_core.so.4.2:_ZN2cv10getSeqElemEPK5CvSeqi
libopencv_core.so.4.2:_ZN2cv10haveOpenVXEv
libopencv_core.so.4.2:_ZN2cv10meanStdDevERKNS_11_InputArrayERKNS_12_OutputArrayES5_S2_
libopencv_core.so.4.2:_ZN2cv10setRNGSeedEi
libopencv_core.so.4.2:_ZN2cv10softdoubleC1Ei
libopencv_core.so.4.2:_ZN2cv10softdoubleC1Ej
libopencv_core.so.4.2:_ZN2cv10softdoubleC1El
libopencv_core.so.4.2:_ZN2cv10softdoubleC1Em
libopencv_core.so.4.2:_ZN2cv10softdoubleC2Ei
libopencv_core.so.4.2:_ZN2cv10softdoubleC2Ej
libopencv_core.so.4.2:_ZN2cv10softdoubleC2El
libopencv_core.so.4.2:_ZN2cv10softdoubleC2Em
libopencv_core.so.4.2:_ZN2cv10solveCubicERKNS_11_InputArrayERKNS_12_OutputArrayE
libopencv_core.so.4.2:_ZN2cv11FileStorage12writeCommentERKNSt7__cxx1112basic_stringIcSt11char_traitsIcESaIcEEEb
libopencv_core.so.4.2:_ZN2cv11FileStorage14endWriteStructEv
libopencv_core.so.4.2:_ZN2cv11FileStorage16startWriteStructERKNSt7__cxx1112basic_stringIcSt11char_traitsIcESaIcEEEiS8_
libopencv_core.so.4.2:_ZN2cv11FileStorage19releaseAndGetStringB5cxx11Ev
libopencv_core.so.4.2:_ZN2cv11FileStorage20getDefaultObjectNameERKNSt7__cxx1112basic_stringIcSt11char_traitsIcESaIcEEE
libopencv_core.so.4.2:_ZN2cv11FileStorage4openERKNSt7__cxx1112basic_stringIcSt11char_traitsIcESaIcEEEiS8_
libopencv_core.so.4.2:_ZN2cv11FileStorage5writeERKNSt7__cxx1112basic_stringIcSt11char_traitsIcESaIcEEERKNS_3MatE
libopencv_core.so.4.2:_ZN2cv11FileStorage5writeERKNSt7__cxx1112basic_stringIcSt11char_traitsIcESaIcEEERKSt6vectorIS6_SaIS6_EE
libopencv_core.so.4.2:_ZN2cv11FileStorage5writeERKNSt7__cxx1112basic_stringIcSt11char_traitsIcESaIcEEES8_
libopencv_core.so.4.2:_ZN2cv11FileStorage5writeERKNSt7__cxx1112basic_stringIcSt11char_traitsIcESaIcEEEd
libopencv_core.so.4.2:_ZN2cv11FileStorage5writeERKNSt7__cxx1112basic_stringIcSt11char_traitsIcESaIcEEEi
libopencv_core.so.4.2:_ZN2cv11FileStorage7releaseEv
libopencv_core.so.4.2:_ZN2cv11FileStorage8writeRawERKNSt7__cxx1112basic_stringIcSt11char_traitsIcESaIcEEEPKvm
libopencv_core.so.4.2:_ZN2cv11FileStorageC1ERKNSt7__cxx1112basic_stringIcSt11char_traitsIcESaIcEEEiS8_
libopencv_core.so.4.2:_ZN2cv11FileStorageC1Ev
libopencv_core.so.4.2:_ZN2cv11FileStorageC2ERKNSt7__cxx1112basic_stringIcSt11char_traitsIcESaIcEEEiS8_
libopencv_core.so.4.2:_ZN2cv11FileStorageC2Ev
libopencv_core.so.4.2:_ZN2cv11FileStorageD0Ev
libopencv_core.so.4.2:_ZN2cv11FileStorageD1Ev
libopencv_core.so.4.2:_ZN2cv11FileStorageD2Ev
libopencv_core.so.4.2:_ZN2cv11MahalanobisERKNS_11_InputArrayES2_S2_
libopencv_core.so.4.2:_ZN2cv11RNG_MT199374nextEv
libopencv_core.so.4.2:_ZN2cv11RNG_MT199374seedEj
libopencv_core.so.4.2:_ZN2cv11RNG_MT199377uniformEdd
libopencv_core.so.4.2:_ZN2cv11RNG_MT199377uniformEff
libopencv_core.so.4.2:_ZN2cv11RNG_MT199377uniformEii
libopencv_core.so.4.2:_ZN2cv11RNG_MT19937C1Ej
libopencv_core.so.4.2:_ZN2cv11RNG_MT19937C1Ev
libopencv_core.so.4.2:_ZN2cv11RNG_MT19937C2Ej
libopencv_core.so.4.2:_ZN2cv11RNG_MT19937C2Ev
libopencv_core.so.4.2:_ZN2cv11RNG_MT19937clEj
libopencv_core.so.4.2:_ZN2cv11RNG_MT19937clEv
libopencv_core.so.4.2:_ZN2cv11RNG_MT19937cvdEv
libopencv_core.so.4.2:_ZN2cv11RNG_MT19937cvfEv
libopencv_core.so.4.2:_ZN2cv11RNG_MT19937cviEv
libopencv_core.so.4.2:_ZN2cv11RNG_MT19937cvjEv
libopencv_core.so.4.2:_ZN2cv11RotatedRectC1ERKNS_6Point_IfEES4_S4_
libopencv_core.so.4.2:_ZN2cv11RotatedRectC2ERKNS_6Point_IfEES4_S4_
libopencv_core.so.4.2:_ZN2cv11SVBackSubstERKNS_11_InputArrayES2_S2_S2_RKNS_12_OutputArrayE
libopencv_core.so.4.2:_ZN2cv11addWeightedERKNS_11_InputArrayEdS2_ddRKNS_12_OutputArrayEi
libopencv_core.so.4.2:_ZN2cv11bitwise_andERKNS_11_InputArrayES2_RKNS_12_OutputArrayES2_
libopencv_core.so.4.2:_ZN2cv11bitwise_notERKNS_11_InputArrayERKNS_12_OutputArrayES2_
libopencv_core.so.4.2:_ZN2cv11bitwise_xorERKNS_11_InputArrayES2_RKNS_12_OutputArrayES2_
libopencv_core.so.4.2:_ZN2cv11cartToPolarERKNS_11_InputArrayES2_RKNS_12_OutputArrayES5_b
libopencv_core.so.4.2:_ZN2cv11convertFp16ERKNS_11_InputArrayERKNS_12_OutputArrayE
libopencv_core.so.4.2:_ZN2cv11determinantERKNS_11_InputArrayE
libopencv_core.so.4.2:_ZN2cv11findNonZeroERKNS_11_InputArrayERKNS_12_OutputArrayE
libopencv_core.so.4.2:_ZN2cv11mixChannelsEPKNS_3MatEmPS0_mPKim
libopencv_core.so.4.2:_ZN2cv11mixChannelsERKNS_11_InputArrayERKNS_17_InputOutputArrayEPKim
libopencv_core.so.4.2:_ZN2cv11mixChannelsERKNS_11_InputArrayERKNS_17_InputOutputArrayERKSt6vectorIiSaIiEE
libopencv_core.so.4.2:_ZN2cv11polarToCartERKNS_11_InputArrayES2_RKNS_12_OutputArrayES5_b
libopencv_core.so.4.2:_ZN2cv11randShuffleERKNS_17_InputOutputArrayEdPNS_3RNGE
libopencv_core.so.4.2:_ZN2cv11seqPopFrontEP5CvSeqPv
libopencv_core.so.4.2:_ZN2cv11setIdentityERKNS_17_InputOutputArrayERKNS_7Scalar_IdEE
libopencv_core.so.4.2:_ZN2cv11writeScalarERNS_11FileStorageERKNSt7__cxx1112basic_stringIcSt11char_traitsIcESaIcEEE
libopencv_core.so.4.2:_ZN2cv11writeScalarERNS_11FileStorageEd
libopencv_core.so.4.2:_ZN2cv11writeScalarERNS_11FileStorageEf
libopencv_core.so.4.2:_ZN2cv11writeScalarERNS_11FileStorageEi
libopencv_core.so.4.2:_ZN2cv12AsyncPromise12setExceptionENSt15__exception_ptr13exception_ptrE
libopencv_core.so.4.2:_ZN2cv12AsyncPromise12setExceptionERKNS_9ExceptionE
libopencv_core.so.4.2:_ZN2cv12AsyncPromise14getArrayResultEv
libopencv_core.so.4.2:_ZN2cv12AsyncPromise7releaseEv
libopencv_core.so.4.2:_ZN2cv12AsyncPromise8setValueERKNS_11_InputArrayE
libopencv_core.so.4.2:_ZN2cv12AsyncPromiseC1ERKS0_
libopencv_core.so.4.2:_ZN2cv12AsyncPromiseC1Ev
libopencv_core.so.4.2:_ZN2cv12AsyncPromiseC2ERKS0_
libopencv_core.so.4.2:_ZN2cv12AsyncPromiseC2Ev
libopencv_core.so.4.2:_ZN2cv12AsyncPromiseD1Ev
libopencv_core.so.4.2:_ZN2cv12AsyncPromiseD2Ev
libopencv_core.so.4.2:_ZN2cv12AsyncPromiseaSERKS0_
libopencv_core.so.4.2:_ZN2cv12completeSymmERKNS_17_InputOutputArrayEb
libopencv_core.so.4.2:_ZN2cv12countNonZeroERKNS_11_InputArrayE
libopencv_core.so.4.2:_ZN2cv12getThreadNumEv
libopencv_core.so.4.2:_ZN2cv12getTickCountEv
libopencv_core.so.4.2:_ZN2cv12mulSpectrumsERKNS_11_InputArrayES2_RKNS_12_OutputArrayEib
libopencv_core.so.4.2:_ZN2cv12seqPushFrontEP5CvSeqPKv
libopencv_core.so.4.2:_ZN2cv12setUseOpenVXEb
libopencv_core.so.4.2:_ZN2cv12typeToStringB5cxx11Ei
libopencv_core.so.4.2:_ZN2cv12useOptimizedEv
libopencv_core.so.4.2:_ZN2cv13batchDistanceERKNS_11_InputArrayES2_RKNS_12_OutputArrayEiS5_iiS2_ib
libopencv_core.so.4.2:_ZN2cv13depthToStringEi
libopencv_core.so.4.2:_ZN2cv13getNumThreadsEv
libopencv_core.so.4.2:_ZN2cv13insertChannelERKNS_11_InputArrayERKNS_17_InputOutputArrayEi
libopencv_core.so.4.2:_ZN2cv13mulTransposedERKNS_11_InputArrayERKNS_12_OutputArrayEbS2_di
libopencv_core.so.4.2:_ZN2cv13parallel_for_ERKNS_5RangeERKNS_16ParallelLoopBodyEd
libopencv_core.so.4.2:_ZN2cv13redirectErrorEPFiiPKcS1_S1_iPvES2_PS2_
libopencv_core.so.4.2:_ZN2cv13setNumThreadsEi
libopencv_core.so.4.2:_ZN2cv14ConjGradSolver6createERKNS_3PtrINS_16MinProblemSolver8FunctionEEENS_12TermCriteriaE
libopencv_core.so.4.2:_ZN2cv14DownhillSolver6createERKNS_3PtrINS_16MinProblemSolver8FunctionEEERKNS_11_InputArrayENS_12TermCriteriaE
libopencv_core.so.4.2:_ZN2cv14PCABackProjectERKNS_11_InputArrayES2_S2_RKNS_12_OutputArrayE
libopencv_core.so.4.2:_ZN2cv14copyMakeBorderERKNS_11_InputArrayERKNS_12_OutputArrayEiiiiiRKNS_7Scalar_IdEE
libopencv_core.so.4.2:_ZN2cv14extractChannelERKNS_11_InputArrayERKNS_12_OutputArrayEi
libopencv_core.so.4.2:_ZN2cv14insertImageCOIERKNS_11_InputArrayEPvi
libopencv_core.so.4.2:_ZN2cv14seqInsertSliceEP5CvSeqiPKv
libopencv_core.so.4.2:_ZN2cv14seqRemoveSliceEP5CvSeq7CvSlice
libopencv_core.so.4.2:_ZN2cv15NAryMatIterator4initEPPKNS_3MatEPS1_PPhi
libopencv_core.so.4.2:_ZN2cv15NAryMatIteratorC1EPPKNS_3MatEPPhi
libopencv_core.so.4.2:_ZN2cv15NAryMatIteratorC1EPPKNS_3MatEPS1_i
libopencv_core.so.4.2:_ZN2cv15NAryMatIteratorC1Ev
libopencv_core.so.4.2:_ZN2cv15NAryMatIteratorC2EPPKNS_3MatEPPhi
libopencv_core.so.4.2:_ZN2cv15NAryMatIteratorC2EPPKNS_3MatEPS1_i
libopencv_core.so.4.2:_ZN2cv15NAryMatIteratorC2Ev
libopencv_core.so.4.2:_ZN2cv15NAryMatIteratorppEi
libopencv_core.so.4.2:_ZN2cv15NAryMatIteratorppEv
libopencv_core.so.4.2:_ZN2cv15calcCovarMatrixEPKNS_3MatEiRS0_S3_ii
libopencv_core.so.4.2:_ZN2cv15calcCovarMatrixERKNS_11_InputArrayERKNS_12_OutputArrayERKNS_17_InputOutputArrayEii
libopencv_core.so.4.2:_ZN2cv15convertScaleAbsERKNS_11_InputArrayERKNS_12_OutputArrayEdd
libopencv_core.so.4.2:_ZN2cv15extractImageCOIEPKvRKNS_12_OutputArrayEi
libopencv_core.so.4.2:_ZN2cv15getCPUTickCountEv
libopencv_core.so.4.2:_ZN2cv15getNumberOfCPUsEv
libopencv_core.so.4.2:_ZN2cv15getVersionMajorEv
libopencv_core.so.4.2:_ZN2cv15getVersionMinorEv
libopencv_core.so.4.2:_ZN2cv15scalarToRawDataERKNS_7Scalar_IdEEPvii
libopencv_core.so.4.2:_ZN2cv15setBreakOnErrorEb
libopencv_core.so.4.2:_ZN2cv15setUseOptimizedEb
libopencv_core.so.4.2:_ZN2cv16FileNodeIterator7readRawERKNSt7__cxx1112basic_stringIcSt11char_traitsIcESaIcEEEPvm
libopencv_core.so.4.2:_ZN2cv16FileNodeIteratorC1ERKNS_8FileNodeEb
libopencv_core.so.4.2:_ZN2cv16FileNodeIteratorC1ERKS0_
libopencv_core.so.4.2:_ZN2cv16FileNodeIteratorC1Ev
libopencv_core.so.4.2:_ZN2cv16FileNodeIteratorC2ERKNS_8FileNodeEb
libopencv_core.so.4.2:_ZN2cv16FileNodeIteratorC2ERKS0_
libopencv_core.so.4.2:_ZN2cv16FileNodeIteratorC2Ev
libopencv_core.so.4.2:_ZN2cv16FileNodeIteratoraSERKS0_
libopencv_core.so.4.2:_ZN2cv16FileNodeIteratorpLEi
libopencv_core.so.4.2:_ZN2cv16FileNodeIteratorppEi
libopencv_core.so.4.2:_ZN2cv16FileNodeIteratorppEv
libopencv_core.so.4.2:_ZN2cv16MatConstIterator4seekEPKib
libopencv_core.so.4.2:_ZN2cv16MatConstIterator4seekElb
libopencv_core.so.4.2:_ZN2cv16MinProblemSolver8Function11getGradientEPKdPd
libopencv_core.so.4.2:_ZN2cv16ParallelLoopBodyD0Ev
libopencv_core.so.4.2:_ZN2cv16ParallelLoopBodyD1Ev
libopencv_core.so.4.2:_ZN2cv16ParallelLoopBodyD2Ev
libopencv_core.so.4.2:_ZN2cv16TLSDataContainer10detachDataERSt6vectorIPvSaIS2_EE
libopencv_core.so.4.2:_ZN2cv16TLSDataContainer7cleanupEv
libopencv_core.so.4.2:_ZN2cv16TLSDataContainer7releaseEv
libopencv_core.so.4.2:_ZN2cv16TLSDataContainerC1Ev
libopencv_core.so.4.2:_ZN2cv16TLSDataContainerC2Ev
libopencv_core.so.4.2:_ZN2cv16TLSDataContainerD0Ev
libopencv_core.so.4.2:_ZN2cv16TLSDataContainerD1Ev
libopencv_core.so.4.2:_ZN2cv16TLSDataContainerD2Ev
libopencv_core.so.4.2:_ZN2cv16UMatDataAutoLockC1EPNS_8UMatDataE
libopencv_core.so.4.2:_ZN2cv16UMatDataAutoLockC1EPNS_8UMatDataES2_
libopencv_core.so.4.2:_ZN2cv16UMatDataAutoLockC2EPNS_8UMatDataE
libopencv_core.so.4.2:_ZN2cv16UMatDataAutoLockC2EPNS_8UMatDataES2_
libopencv_core.so.4.2:_ZN2cv16UMatDataAutoLockD1Ev
libopencv_core.so.4.2:_ZN2cv16UMatDataAutoLockD2Ev
libopencv_core.so.4.2:_ZN2cv16getTickFrequencyEv
libopencv_core.so.4.2:_ZN2cv16getVersionStringB5cxx11Ev
libopencv_core.so.4.2:_ZN2cv17CommandLineParser4Impl11sort_paramsEv
libopencv_core.so.4.2:_ZN2cv17CommandLineParser4Impl12apply_paramsERKNSt7__cxx1112basic_stringIcSt11char_traitsIcESaIcEEES9_
libopencv_core.so.4.2:_ZN2cv17CommandLineParser4Impl12apply_paramsEiNSt7__cxx1112basic_stringIcSt11char_traitsIcESaIcEEE
libopencv_core.so.4.2:_ZN2cv17CommandLineParser5aboutERKNSt7__cxx1112basic_stringIcSt11char_traitsIcESaIcEEE
libopencv_core.so.4.2:_ZN2cv17CommandLineParserC1ERKS0_
libopencv_core.so.4.2:_ZN2cv17CommandLineParserC1EiPKPKcRKNSt7__cxx1112basic_stringIcSt11char_traitsIcESaIcEEE
libopencv_core.so.4.2:_ZN2cv17CommandLineParserC2ERKS0_
libopencv_core.so.4.2:_ZN2cv17CommandLineParserC2EiPKPKcRKNSt7__cxx1112basic_stringIcSt11char_traitsIcESaIcEEE
libopencv_core.so.4.2:_ZN2cv17CommandLineParserD1Ev
libopencv_core.so.4.2:_ZN2cv17CommandLineParserD2Ev
libopencv_core.so.4.2:_ZN2cv17CommandLineParseraSERKS0_
libopencv_core.so.4.2:_ZN2cv17borderInterpolateEiii
libopencv_core.so.4.2:_ZN2cv17eigenNonSymmetricERKNS_11_InputArrayERKNS_12_OutputArrayES5_
libopencv_core.so.4.2:_ZN2cv17getOptimalDFTSizeEi
libopencv_core.so.4.2:_ZN2cv18getCPUFeaturesLineB5cxx11Ev
libopencv_core.so.4.2:_ZN2cv18getVersionRevisionEv
libopencv_core.so.4.2:_ZN2cv19getBuildInformationB5cxx11Ev
libopencv_core.so.4.2:_ZN2cv20allocSingletonBufferEm
libopencv_core.so.4.2:_ZN2cv20checkHardwareSupportEi
libopencv_core.so.4.2:_ZN2cv20perspectiveTransformERKNS_11_InputArrayERKNS_12_OutputArrayES2_
libopencv_core.so.4.2:_ZN2cv22SparseMatConstIteratorC1EPKNS_9SparseMatE
libopencv_core.so.4.2:_ZN2cv22SparseMatConstIteratorC2EPKNS_9SparseMatE
libopencv_core.so.4.2:_ZN2cv22SparseMatConstIteratorppEv
libopencv_core.so.4.2:_ZN2cv22getAllocatorStatisticsEv
libopencv_core.so.4.2:_ZN2cv22getHardwareFeatureNameB5cxx11Ei
libopencv_core.so.4.2:_ZN2cv23allocSingletonNewBufferEm
libopencv_core.so.4.2:_ZN2cv24currentParallelFrameworkEv
libopencv_core.so.4.2:_ZN2cv2LUEPdmiS0_mi
libopencv_core.so.4.2:_ZN2cv2LUEPfmiS0_mi
libopencv_core.so.4.2:_ZN2cv3LDA11reconstructERKNS_11_InputArrayE
libopencv_core.so.4.2:_ZN2cv3LDA15subspaceProjectERKNS_11_InputArrayES3_S3_
libopencv_core.so.4.2:_ZN2cv3LDA19subspaceReconstructERKNS_11_InputArrayES3_S3_
libopencv_core.so.4.2:_ZN2cv3LDA3ldaERKNS_11_InputArrayES3_
libopencv_core.so.4.2:_ZN2cv3LDA4loadERKNS_11FileStorageE
libopencv_core.so.4.2:_ZN2cv3LDA4loadERKNSt7__cxx1112basic_stringIcSt11char_traitsIcESaIcEEE
libopencv_core.so.4.2:_ZN2cv3LDA7computeERKNS_11_InputArrayES3_
libopencv_core.so.4.2:_ZN2cv3LDA7projectERKNS_11_InputArrayE
libopencv_core.so.4.2:_ZN2cv3LDAC1ERKNS_11_InputArrayES3_i
libopencv_core.so.4.2:_ZN2cv3LDAC1Ei
libopencv_core.so.4.2:_ZN2cv3LDAC2ERKNS_11_InputArrayES3_i
libopencv_core.so.4.2:_ZN2cv3LDAC2Ei
libopencv_core.so.4.2:_ZN2cv3LDAD1Ev
libopencv_core.so.4.2:_ZN2cv3LDAD2Ev
libopencv_core.so.4.2:_ZN2cv3LUTERKNS_11_InputArrayES2_RKNS_12_OutputArrayE
libopencv_core.so.4.2:_ZN2cv3Mat10deallocateEv
libopencv_core.so.4.2:_ZN2cv3Mat10push_back_EPKv
libopencv_core.so.4.2:_ZN2cv3Mat13reserveBufferEm
libopencv_core.so.4.2:_ZN2cv3Mat15getStdAllocatorEv
libopencv_core.so.4.2:_ZN2cv3Mat19getDefaultAllocatorEv
libopencv_core.so.4.2:_ZN2cv3Mat19setDefaultAllocatorEPNS_12MatAllocatorE
libopencv_core.so.4.2:_ZN2cv3Mat20updateContinuityFlagEv
libopencv_core.so.4.2:_ZN2cv3Mat3eyeENS_5Size_IiEEi
libopencv_core.so.4.2:_ZN2cv3Mat3eyeEiii
libopencv_core.so.4.2:_ZN2cv3Mat4diagERKS0_
libopencv_core.so.4.2:_ZN2cv3Mat4onesENS_5Size_IiEEi
libopencv_core.so.4.2:_ZN2cv3Mat4onesEiPKii
libopencv_core.so.4.2:_ZN2cv3Mat4onesEiii
libopencv_core.so.4.2:_ZN2cv3Mat5setToERKNS_11_InputArrayES3_
libopencv_core.so.4.2:_ZN2cv3Mat5zerosENS_5Size_IiEEi
libopencv_core.so.4.2:_ZN2cv3Mat5zerosEiPKii
libopencv_core.so.4.2:_ZN2cv3Mat5zerosEiii
libopencv_core.so.4.2:_ZN2cv3Mat6createERKSt6vectorIiSaIiEEi
libopencv_core.so.4.2:_ZN2cv3Mat6createEiPKii
libopencv_core.so.4.2:_ZN2cv3Mat6resizeEm
libopencv_core.so.4.2:_ZN2cv3Mat6resizeEmRKNS_7Scalar_IdEE
libopencv_core.so.4.2:_ZN2cv3Mat7reserveEm
libopencv_core.so.4.2:_ZN2cv3Mat8copySizeERKS0_
libopencv_core.so.4.2:_ZN2cv3Mat8pop_backEm
libopencv_core.so.4.2:_ZN2cv3Mat9adjustROIEiiii
libopencv_core.so.4.2:_ZN2cv3Mat9push_backERKS0_
libopencv_core.so.4.2:_ZN2cv3MatC1ERKS0_PKNS_5RangeE
libopencv_core.so.4.2:_ZN2cv3MatC1ERKS0_RKNS_5RangeES5_
libopencv_core.so.4.2:_ZN2cv3MatC1ERKS0_RKNS_5Rect_IiEE
libopencv_core.so.4.2:_ZN2cv3MatC1ERKS0_RKSt6vectorINS_5RangeESaIS4_EE
libopencv_core.so.4.2:_ZN2cv3MatC1ERKSt6vectorIiSaIiEEiPvPKm
libopencv_core.so.4.2:_ZN2cv3MatC1EiPKiiPvPKm
libopencv_core.so.4.2:_ZN2cv3MatC2ERKS0_PKNS_5RangeE
libopencv_core.so.4.2:_ZN2cv3MatC2ERKS0_RKNS_5RangeES5_
libopencv_core.so.4.2:_ZN2cv3MatC2ERKS0_RKNS_5Rect_IiEE
libopencv_core.so.4.2:_ZN2cv3MatC2ERKS0_RKSt6vectorINS_5RangeESaIS4_EE
libopencv_core.so.4.2:_ZN2cv3MatC2ERKSt6vectorIiSaIiEEiPvPKm
libopencv_core.so.4.2:_ZN2cv3MatC2EiPKiiPvPKm
libopencv_core.so.4.2:_ZN2cv3MataSERKNS_7Scalar_IdEE
libopencv_core.so.4.2:_ZN2cv3PCA4readERKNS_8FileNodeE
libopencv_core.so.4.2:_ZN2cv3PCAC1ERKNS_11_InputArrayES3_id
libopencv_core.so.4.2:_ZN2cv3PCAC1ERKNS_11_InputArrayES3_ii
libopencv_core.so.4.2:_ZN2cv3PCAC1Ev
libopencv_core.so.4.2:_ZN2cv3PCAC2ERKNS_11_InputArrayES3_id
libopencv_core.so.4.2:_ZN2cv3PCAC2ERKNS_11_InputArrayES3_ii
libopencv_core.so.4.2:_ZN2cv3PCAC2Ev
libopencv_core.so.4.2:_ZN2cv3PCAclERKNS_11_InputArrayES3_id
libopencv_core.so.4.2:_ZN2cv3PCAclERKNS_11_InputArrayES3_ii
libopencv_core.so.4.2:_ZN2cv3RNG4fillERKNS_17_InputOutputArrayEiRKNS_11_InputArrayES6_b
libopencv_core.so.4.2:_ZN2cv3RNG8gaussianEd
libopencv_core.so.4.2:_ZN2cv3SVD7computeERKNS_11_InputArrayERKNS_12_OutputArrayES6_S6_i
libopencv_core.so.4.2:_ZN2cv3SVD7computeERKNS_11_InputArrayERKNS_12_OutputArrayEi
libopencv_core.so.4.2:_ZN2cv3SVD9backSubstERKNS_11_InputArrayES3_S3_S3_RKNS_12_OutputArrayE
libopencv_core.so.4.2:_ZN2cv3SVDclERKNS_11_InputArrayEi
libopencv_core.so.4.2:_ZN2cv3absERKNS_3MatE
libopencv_core.so.4.2:_ZN2cv3absERKNS_7MatExprE
libopencv_core.so.4.2:_ZN2cv3addERKNS_11_InputArrayES2_RKNS_12_OutputArrayES2_i
libopencv_core.so.4.2:_ZN2cv3cosERKNS_10softdoubleE
libopencv_core.so.4.2:_ZN2cv3dctERKNS_11_InputArrayERKNS_12_OutputArrayEi
libopencv_core.so.4.2:_ZN2cv3dftERKNS_11_InputArrayERKNS_12_OutputArrayEii
libopencv_core.so.4.2:_ZN2cv3expERKNS_10softdoubleE
libopencv_core.so.4.2:_ZN2cv3expERKNS_11_InputArrayERKNS_12_OutputArrayE
libopencv_core.so.4.2:_ZN2cv3expERKNS_9softfloatE
libopencv_core.so.4.2:_ZN2cv3hal10absdiff16sEPKsmS2_mPsmiiPv
libopencv_core.so.4.2:_ZN2cv3hal10absdiff16uEPKtmS2_mPtmiiPv
libopencv_core.so.4.2:_ZN2cv3hal10absdiff32fEPKfmS2_mPfmiiPv
libopencv_core.so.4.2:_ZN2cv3hal10absdiff32sEPKimS2_mPimiiPv
libopencv_core.so.4.2:_ZN2cv3hal10absdiff64fEPKdmS2_mPdmiiPv
libopencv_core.so.4.2:_ZN2cv3hal10invSqrt32fEPKfPfi
libopencv_core.so.4.2:_ZN2cv3hal10invSqrt64fEPKdPdi
libopencv_core.so.4.2:_ZN2cv3hal10normL2Sqr_EPKfS2_i
libopencv_core.so.4.2:_ZN2cv3hal11Cholesky32fEPfmiS1_mi
libopencv_core.so.4.2:_ZN2cv3hal11Cholesky64fEPdmiS1_mi
libopencv_core.so.4.2:_ZN2cv3hal11fastAtan32fEPKfS2_Pfib
libopencv_core.so.4.2:_ZN2cv3hal11fastAtan64fEPKdS2_Pdib
libopencv_core.so.4.2:_ZN2cv3hal11normHammingEPKhS2_i
libopencv_core.so.4.2:_ZN2cv3hal11normHammingEPKhS2_ii
libopencv_core.so.4.2:_ZN2cv3hal11normHammingEPKhi
libopencv_core.so.4.2:_ZN2cv3hal11normHammingEPKhii
libopencv_core.so.4.2:_ZN2cv3hal12magnitude32fEPKfS2_Pfi
libopencv_core.so.4.2:_ZN2cv3hal12magnitude64fEPKdS2_Pdi
libopencv_core.so.4.2:_ZN2cv3hal13addRNGBias32fEPfPKfi
libopencv_core.so.4.2:_ZN2cv3hal13addRNGBias64fEPdPKdi
libopencv_core.so.4.2:_ZN2cv3hal13addWeighted8sEPKamS2_mPamiiPv
libopencv_core.so.4.2:_ZN2cv3hal13addWeighted8uEPKhmS2_mPhmiiPv
libopencv_core.so.4.2:_ZN2cv3hal14addWeighted16sEPKsmS2_mPsmiiPv
libopencv_core.so.4.2:_ZN2cv3hal14addWeighted16uEPKtmS2_mPtmiiPv
libopencv_core.so.4.2:_ZN2cv3hal14addWeighted32fEPKfmS2_mPfmiiPv
libopencv_core.so.4.2:_ZN2cv3hal14addWeighted32sEPKimS2_mPimiiPv
libopencv_core.so.4.2:_ZN2cv3hal14addWeighted64fEPKdmS2_mPdmiiPv
libopencv_core.so.4.2:_ZN2cv3hal2LUEPdmiS1_mi
libopencv_core.so.4.2:_ZN2cv3hal2LUEPfmiS1_mi
libopencv_core.so.4.2:_ZN2cv3hal3expEPKdPdi
libopencv_core.so.4.2:_ZN2cv3hal3expEPKfPfi
libopencv_core.so.4.2:_ZN2cv3hal3logEPKdPdi
libopencv_core.so.4.2:_ZN2cv3hal3logEPKfPfi
libopencv_core.so.4.2:_ZN2cv3hal4or8uEPKhmS2_mPhmiiPv
libopencv_core.so.4.2:_ZN2cv3hal4sqrtEPKdPdi
libopencv_core.so.4.2:_ZN2cv3hal4sqrtEPKfPfi
libopencv_core.so.4.2:_ZN2cv3hal5DCT2D6createEiiii
libopencv_core.so.4.2:_ZN2cv3hal5DFT1D6createEiiiiPb
libopencv_core.so.4.2:_ZN2cv3hal5DFT2D6createEiiiiiii
libopencv_core.so.4.2:_ZN2cv3hal5LU32fEPfmiS1_mi
libopencv_core.so.4.2:_ZN2cv3hal5LU64fEPdmiS1_mi
libopencv_core.so.4.2:_ZN2cv3hal5QR32fEPfmiiiS1_mS1_
libopencv_core.so.4.2:_ZN2cv3hal5QR64fEPdmiiiS1_mS1_
libopencv_core.so.4.2:_ZN2cv3hal5add8sEPKamS2_mPamiiPv
libopencv_core.so.4.2:_ZN2cv3hal5add8uEPKhmS2_mPhmiiPv
libopencv_core.so.4.2:_ZN2cv3hal5and8uEPKhmS2_mPhmiiPv
libopencv_core.so.4.2:_ZN2cv3hal5cmp8sEPKamS2_mPhmiiPv
libopencv_core.so.4.2:_ZN2cv3hal5cmp8uEPKhmS2_mPhmiiPv
libopencv_core.so.4.2:_ZN2cv3hal5div8sEPKamS2_mPamiiPv
libopencv_core.so.4.2:_ZN2cv3hal5div8uEPKhmS2_mPhmiiPv
libopencv_core.so.4.2:_ZN2cv3hal5max8sEPKamS2_mPamiiPv
libopencv_core.so.4.2:_ZN2cv3hal5max8uEPKhmS2_mPhmiiPv
libopencv_core.so.4.2:_ZN2cv3hal5min8sEPKamS2_mPamiiPv
libopencv_core.so.4.2:_ZN2cv3hal5min8uEPKhmS2_mPhmiiPv
libopencv_core.so.4.2:_ZN2cv3hal5mul8sEPKamS2_mPamiiPv
libopencv_core.so.4.2:_ZN2cv3hal5mul8uEPKhmS2_mPhmiiPv
libopencv_core.so.4.2:_ZN2cv3hal5not8uEPKhmS2_mPhmiiPv
libopencv_core.so.4.2:_ZN2cv3hal5sub8sEPKamS2_mPamiiPv
libopencv_core.so.4.2:_ZN2cv3hal5sub8uEPKhmS2_mPhmiiPv
libopencv_core.so.4.2:_ZN2cv3hal5xor8uEPKhmS2_mPhmiiPv
libopencv_core.so.4.2:_ZN2cv3hal6SVD32fEPfmS1_S1_mS1_miii
libopencv_core.so.4.2:_ZN2cv3hal6SVD64fEPdmS1_S1_mS1_miii
libopencv_core.so.4.2:_ZN2cv3hal6add16sEPKsmS2_mPsmiiPv
libopencv_core.so.4.2:_ZN2cv3hal6add16uEPKtmS2_mPtmiiPv
libopencv_core.so.4.2:_ZN2cv3hal6add32fEPKfmS2_mPfmiiPv
libopencv_core.so.4.2:_ZN2cv3hal6add32sEPKimS2_mPimiiPv
libopencv_core.so.4.2:_ZN2cv3hal6add64fEPKdmS2_mPdmiiPv
libopencv_core.so.4.2:_ZN2cv3hal6cmp16sEPKsmS2_mPhmiiPv
libopencv_core.so.4.2:_ZN2cv3hal6cmp16uEPKtmS2_mPhmiiPv
libopencv_core.so.4.2:_ZN2cv3hal6cmp32fEPKfmS2_mPhmiiPv
libopencv_core.so.4.2:_ZN2cv3hal6cmp32sEPKimS2_mPhmiiPv
libopencv_core.so.4.2:_ZN2cv3hal6cmp64fEPKdmS2_mPhmiiPv
libopencv_core.so.4.2:_ZN2cv3hal6div16sEPKsmS2_mPsmiiPv
libopencv_core.so.4.2:_ZN2cv3hal6div16uEPKtmS2_mPtmiiPv
libopencv_core.so.4.2:_ZN2cv3hal6div32fEPKfmS2_mPfmiiPv
libopencv_core.so.4.2:_ZN2cv3hal6div32sEPKimS2_mPimiiPv
libopencv_core.so.4.2:_ZN2cv3hal6div64fEPKdmS2_mPdmiiPv
libopencv_core.so.4.2:_ZN2cv3hal6exp32fEPKfPfi
libopencv_core.so.4.2:_ZN2cv3hal6exp64fEPKdPdi
libopencv_core.so.4.2:_ZN2cv3hal6log32fEPKfPfi
libopencv_core.so.4.2:_ZN2cv3hal6log64fEPKdPdi
libopencv_core.so.4.2:_ZN2cv3hal6max16sEPKsmS2_mPsmiiPv
libopencv_core.so.4.2:_ZN2cv3hal6max16uEPKtmS2_mPtmiiPv
libopencv_core.so.4.2:_ZN2cv3hal6max32fEPKfmS2_mPfmiiPv
libopencv_core.so.4.2:_ZN2cv3hal6max32sEPKimS2_mPimiiPv
libopencv_core.so.4.2:_ZN2cv3hal6max64fEPKdmS2_mPdmiiPv
libopencv_core.so.4.2:_ZN2cv3hal6min16sEPKsmS2_mPsmiiPv
libopencv_core.so.4.2:_ZN2cv3hal6min16uEPKtmS2_mPtmiiPv
libopencv_core.so.4.2:_ZN2cv3hal6min32fEPKfmS2_mPfmiiPv
libopencv_core.so.4.2:_ZN2cv3hal6min32sEPKimS2_mPimiiPv
libopencv_core.so.4.2:_ZN2cv3hal6min64fEPKdmS2_mPdmiiPv
libopencv_core.so.4.2:_ZN2cv3hal6mul16sEPKsmS2_mPsmiiPv
libopencv_core.so.4.2:_ZN2cv3hal6mul16uEPKtmS2_mPtmiiPv
libopencv_core.so.4.2:_ZN2cv3hal6mul32fEPKfmS2_mPfmiiPv
libopencv_core.so.4.2:_ZN2cv3hal6mul32sEPKimS2_mPimiiPv
libopencv_core.so.4.2:_ZN2cv3hal6mul64fEPKdmS2_mPdmiiPv
libopencv_core.so.4.2:_ZN2cv3hal6sub16sEPKsmS2_mPsmiiPv
libopencv_core.so.4.2:_ZN2cv3hal6sub16uEPKtmS2_mPtmiiPv
libopencv_core.so.4.2:_ZN2cv3hal6sub32fEPKfmS2_mPfmiiPv
libopencv_core.so.4.2:_ZN2cv3hal6sub32sEPKimS2_mPimiiPv
libopencv_core.so.4.2:_ZN2cv3hal6sub64fEPKdmS2_mPdmiiPv
libopencv_core.so.4.2:_ZN2cv3hal7gemm32fEPKfmS2_mfS2_mfPfmiiii
libopencv_core.so.4.2:_ZN2cv3hal7gemm64fEPKdmS2_mdS2_mdPdmiiii
libopencv_core.so.4.2:_ZN2cv3hal7invSqrtEPKdPdi
libopencv_core.so.4.2:_ZN2cv3hal7invSqrtEPKfPfi
libopencv_core.so.4.2:_ZN2cv3hal7merge8uEPPKhPhii
libopencv_core.so.4.2:_ZN2cv3hal7normL1_EPKfS2_i
libopencv_core.so.4.2:_ZN2cv3hal7normL1_EPKhS2_i
libopencv_core.so.4.2:_ZN2cv3hal7recip8sEPKamS2_mPamiiPv
libopencv_core.so.4.2:_ZN2cv3hal7recip8uEPKhmS2_mPhmiiPv
libopencv_core.so.4.2:_ZN2cv3hal7split8uEPKhPPhii
libopencv_core.so.4.2:_ZN2cv3hal7sqrt32fEPKfPfi
libopencv_core.so.4.2:_ZN2cv3hal7sqrt64fEPKdPdi
libopencv_core.so.4.2:_ZN2cv3hal8CholeskyEPdmiS1_mi
libopencv_core.so.4.2:_ZN2cv3hal8CholeskyEPfmiS1_mi
libopencv_core.so.4.2:_ZN2cv3hal8gemm32fcEPKfmS2_mfS2_mfPfmiiii
libopencv_core.so.4.2:_ZN2cv3hal8gemm64fcEPKdmS2_mdS2_mdPdmiiii
libopencv_core.so.4.2:_ZN2cv3hal8merge16uEPPKtPtii
libopencv_core.so.4.2:_ZN2cv3hal8merge32sEPPKiPiii
libopencv_core.so.4.2:_ZN2cv3hal8merge64sEPPKlPlii
libopencv_core.so.4.2:_ZN2cv3hal8recip16sEPKsmS2_mPsmiiPv
libopencv_core.so.4.2:_ZN2cv3hal8recip16uEPKtmS2_mPtmiiPv
libopencv_core.so.4.2:_ZN2cv3hal8recip32fEPKfmS2_mPfmiiPv
libopencv_core.so.4.2:_ZN2cv3hal8recip32sEPKimS2_mPimiiPv
libopencv_core.so.4.2:_ZN2cv3hal8recip64fEPKdmS2_mPdmiiPv
libopencv_core.so.4.2:_ZN2cv3hal8split16uEPKtPPtii
libopencv_core.so.4.2:_ZN2cv3hal8split32sEPKiPPiii
libopencv_core.so.4.2:_ZN2cv3hal8split64sEPKlPPlii
libopencv_core.so.4.2:_ZN2cv3hal9absdiff8sEPKamS2_mPamiiPv
libopencv_core.so.4.2:_ZN2cv3hal9absdiff8uEPKhmS2_mPhmiiPv
libopencv_core.so.4.2:_ZN2cv3hal9cvt16f32fEPKNS_9float16_tEPfi
libopencv_core.so.4.2:_ZN2cv3hal9cvt32f16fEPKfPNS_9float16_tEi
libopencv_core.so.4.2:_ZN2cv3hal9fastAtan2EPKfS2_Pfib
libopencv_core.so.4.2:_ZN2cv3hal9magnitudeEPKdS2_Pdi
libopencv_core.so.4.2:_ZN2cv3hal9magnitudeEPKfS2_Pfi
libopencv_core.so.4.2:_ZN2cv3ipp12getIppStatusEv
libopencv_core.so.4.2:_ZN2cv3ipp12setIppStatusEiPKcS2_i
libopencv_core.so.4.2:_ZN2cv3ipp13getIppVersionB5cxx11Ev
libopencv_core.so.4.2:_ZN2cv3ipp14getIppFeaturesEv
libopencv_core.so.4.2:_ZN2cv3ipp15useIPP_NotExactEv
libopencv_core.so.4.2:_ZN2cv3ipp18setUseIPP_NotExactEb
libopencv_core.so.4.2:_ZN2cv3ipp19getIppErrorLocationB5cxx11Ev
libopencv_core.so.4.2:_ZN2cv3ipp6useIPPEv
libopencv_core.so.4.2:_ZN2cv3ipp9setUseIPPEb
libopencv_core.so.4.2:_ZN2cv3logERKNS_10softdoubleE
libopencv_core.so.4.2:_ZN2cv3logERKNS_11_InputArrayERKNS_12_OutputArrayE
libopencv_core.so.4.2:_ZN2cv3logERKNS_9softfloatE
libopencv_core.so.4.2:_ZN2cv3maxERKNS_11_InputArrayES2_RKNS_12_OutputArrayE
libopencv_core.so.4.2:_ZN2cv3maxERKNS_3MatES2_
libopencv_core.so.4.2:_ZN2cv3maxERKNS_3MatES2_RS0_
libopencv_core.so.4.2:_ZN2cv3maxERKNS_3MatEd
libopencv_core.so.4.2:_ZN2cv3maxERKNS_4UMatES2_RS0_
libopencv_core.so.4.2:_ZN2cv3maxEdRKNS_3MatE
libopencv_core.so.4.2:_ZN2cv3minERKNS_11_InputArrayES2_RKNS_12_OutputArrayE
libopencv_core.so.4.2:_ZN2cv3minERKNS_3MatES2_
libopencv_core.so.4.2:_ZN2cv3minERKNS_3MatES2_RS0_
libopencv_core.so.4.2:_ZN2cv3minERKNS_3MatEd
libopencv_core.so.4.2:_ZN2cv3minERKNS_4UMatES2_RS0_
libopencv_core.so.4.2:_ZN2cv3minEdRKNS_3MatE
libopencv_core.so.4.2:_ZN2cv3ocl10haveAmdFftEv
libopencv_core.so.4.2:_ZN2cv3ocl10haveOpenCLEv
libopencv_core.so.4.2:_ZN2cv3ocl11haveAmdBlasEv
libopencv_core.so.4.2:_ZN2cv3ocl11kernelToStrB5cxx11ERKNS_11_InputArrayEiPKc
libopencv_core.so.4.2:_ZN2cv3ocl12PlatformInfoC1EPv
libopencv_core.so.4.2:_ZN2cv3ocl12PlatformInfoC1ERKS1_
libopencv_core.so.4.2:_ZN2cv3ocl12PlatformInfoC1Ev
libopencv_core.so.4.2:_ZN2cv3ocl12PlatformInfoC2EPv
libopencv_core.so.4.2:_ZN2cv3ocl12PlatformInfoC2ERKS1_
libopencv_core.so.4.2:_ZN2cv3ocl12PlatformInfoC2Ev
libopencv_core.so.4.2:_ZN2cv3ocl12PlatformInfoD1Ev
libopencv_core.so.4.2:_ZN2cv3ocl12PlatformInfoD2Ev
libopencv_core.so.4.2:_ZN2cv3ocl12PlatformInfoaSERKS1_
libopencv_core.so.4.2:_ZN2cv3ocl12setUseOpenCLEb
libopencv_core.so.4.2:_ZN2cv3ocl13ProgramSource10fromBinaryERKNSt7__cxx1112basic_stringIcSt11char_traitsIcESaIcEEES9_PKhmS9_
libopencv_core.so.4.2:_ZN2cv3ocl13ProgramSource8fromSPIRERKNSt7__cxx1112basic_stringIcSt11char_traitsIcESaIcEEES9_PKhmS9_
libopencv_core.so.4.2:_ZN2cv3ocl13ProgramSourceC1EPKc
libopencv_core.so.4.2:_ZN2cv3ocl13ProgramSourceC1ERKNSt7__cxx1112basic_stringIcSt11char_traitsIcESaIcEEE
libopencv_core.so.4.2:_ZN2cv3ocl13ProgramSourceC1ERKNSt7__cxx1112basic_stringIcSt11char_traitsIcESaIcEEES9_S9_S9_
libopencv_core.so.4.2:_ZN2cv3ocl13ProgramSourceC1ERKS1_
libopencv_core.so.4.2:_ZN2cv3ocl13ProgramSourceC1Ev
libopencv_core.so.4.2:_ZN2cv3ocl13ProgramSourceC2EPKc
libopencv_core.so.4.2:_ZN2cv3ocl13ProgramSourceC2ERKNSt7__cxx1112basic_stringIcSt11char_traitsIcESaIcEEE
libopencv_core.so.4.2:_ZN2cv3ocl13ProgramSourceC2ERKNSt7__cxx1112basic_stringIcSt11char_traitsIcESaIcEEES9_S9_S9_
libopencv_core.so.4.2:_ZN2cv3ocl13ProgramSourceC2ERKS1_
libopencv_core.so.4.2:_ZN2cv3ocl13ProgramSourceC2Ev
libopencv_core.so.4.2:_ZN2cv3ocl13ProgramSourceD1Ev
libopencv_core.so.4.2:_ZN2cv3ocl13ProgramSourceD2Ev
libopencv_core.so.4.2:_ZN2cv3ocl13ProgramSourceaSERKS1_
libopencv_core.so.4.2:_ZN2cv3ocl13attachContextERKNSt7__cxx1112basic_stringIcSt11char_traitsIcESaIcEEEPvS9_S9_
libopencv_core.so.4.2:_ZN2cv3ocl14convertTypeStrEiiiPc
libopencv_core.so.4.2:_ZN2cv3ocl14memopTypeToStrEi
libopencv_core.so.4.2:_ZN2cv3ocl14vecopTypeToStrEi
libopencv_core.so.4.2:_ZN2cv3ocl15getPlatfomsInfoERSt6vectorINS0_12PlatformInfoESaIS2_EE
libopencv_core.so.4.2:_ZN2cv3ocl16convertFromImageEPvRNS_4UMatE
libopencv_core.so.4.2:_ZN2cv3ocl17convertFromBufferEPvmiiiRNS_4UMatE
libopencv_core.so.4.2:_ZN2cv3ocl17isOpenCLActivatedEv
libopencv_core.so.4.2:_ZN2cv3ocl18getOpenCLAllocatorEv
libopencv_core.so.4.2:_ZN2cv3ocl20getOpenCLErrorStringEi
libopencv_core.so.4.2:_ZN2cv3ocl23checkOptimalVectorWidthEPKiRKNS_11_InputArrayES5_S5_S5_S5_S5_S5_S5_S5_NS0_17OclVectorStrategyE
libopencv_core.so.4.2:_ZN2cv3ocl25predictOptimalVectorWidthERKNS_11_InputArrayES3_S3_S3_S3_S3_S3_S3_S3_NS0_17OclVectorStrategyE
libopencv_core.so.4.2:_ZN2cv3ocl28getOpenCLAllocatorStatisticsEv
libopencv_core.so.4.2:_ZN2cv3ocl28predictOptimalVectorWidthMaxERKNS_11_InputArrayES3_S3_S3_S3_S3_S3_S3_S3_
libopencv_core.so.4.2:_ZN2cv3ocl32buildOptionsAddMatrixDescriptionERNSt7__cxx1112basic_stringIcSt11char_traitsIcESaIcEEERKS6_RKNS_11_InputArrayE
libopencv_core.so.4.2:_ZN2cv3ocl5Queue10getDefaultEv
libopencv_core.so.4.2:_ZN2cv3ocl5Queue6createERKNS0_7ContextERKNS0_6DeviceE
libopencv_core.so.4.2:_ZN2cv3ocl5Queue6finishEv
libopencv_core.so.4.2:_ZN2cv3ocl5QueueC1ERKNS0_7ContextERKNS0_6DeviceE
libopencv_core.so.4.2:_ZN2cv3ocl5QueueC1ERKS1_
libopencv_core.so.4.2:_ZN2cv3ocl5QueueC1Ev
libopencv_core.so.4.2:_ZN2cv3ocl5QueueC2ERKNS0_7ContextERKNS0_6DeviceE
libopencv_core.so.4.2:_ZN2cv3ocl5QueueC2ERKS1_
libopencv_core.so.4.2:_ZN2cv3ocl5QueueC2Ev
libopencv_core.so.4.2:_ZN2cv3ocl5QueueD1Ev
libopencv_core.so.4.2:_ZN2cv3ocl5QueueD2Ev
libopencv_core.so.4.2:_ZN2cv3ocl5QueueaSERKS1_
libopencv_core.so.4.2:_ZN2cv3ocl5Timer4stopEv
libopencv_core.so.4.2:_ZN2cv3ocl5Timer5startEv
libopencv_core.so.4.2:_ZN2cv3ocl5TimerC1ERKNS0_5QueueE
libopencv_core.so.4.2:_ZN2cv3ocl5TimerC2ERKNS0_5QueueE
libopencv_core.so.4.2:_ZN2cv3ocl5TimerD1Ev
libopencv_core.so.4.2:_ZN2cv3ocl5TimerD2Ev
libopencv_core.so.4.2:_ZN2cv3ocl6Device10getDefaultEv
libopencv_core.so.4.2:_ZN2cv3ocl6Device3setEPv
libopencv_core.so.4.2:_ZN2cv3ocl6DeviceC1EPv
libopencv_core.so.4.2:_ZN2cv3ocl6DeviceC1ERKS1_
libopencv_core.so.4.2:_ZN2cv3ocl6DeviceC1Ev
libopencv_core.so.4.2:_ZN2cv3ocl6DeviceC2EPv
libopencv_core.so.4.2:_ZN2cv3ocl6DeviceC2ERKS1_
libopencv_core.so.4.2:_ZN2cv3ocl6DeviceC2Ev
libopencv_core.so.4.2:_ZN2cv3ocl6DeviceD1Ev
libopencv_core.so.4.2:_ZN2cv3ocl6DeviceD2Ev
libopencv_core.so.4.2:_ZN2cv3ocl6DeviceaSERKS1_
libopencv_core.so.4.2:_ZN2cv3ocl6Kernel12runProfilingEiPmS2_RKNS0_5QueueE
libopencv_core.so.4.2:_ZN2cv3ocl6Kernel3runEiPmS2_bRKNS0_5QueueE
libopencv_core.so.4.2:_ZN2cv3ocl6Kernel3setEiPKvm
libopencv_core.so.4.2:_ZN2cv3ocl6Kernel3setEiRKNS0_7Image2DE
libopencv_core.so.4.2:_ZN2cv3ocl6Kernel3setEiRKNS0_9KernelArgE
libopencv_core.so.4.2:_ZN2cv3ocl6Kernel3setEiRKNS_4UMatE
libopencv_core.so.4.2:_ZN2cv3ocl6Kernel4Impl3runEiPmS3_bPlRKNS0_5QueueE
libopencv_core.so.4.2:_ZN2cv3ocl6Kernel6createEPKcRKNS0_13ProgramSourceERKNSt7__cxx1112basic_stringIcSt11char_traitsIcESaIcEEEPSC_
libopencv_core.so.4.2:_ZN2cv3ocl6Kernel6createEPKcRKNS0_7ProgramE
libopencv_core.so.4.2:_ZN2cv3ocl6Kernel7runTaskEbRKNS0_5QueueE
libopencv_core.so.4.2:_ZN2cv3ocl6KernelC1EPKcRKNS0_13ProgramSourceERKNSt7__cxx1112basic_stringIcSt11char_traitsIcESaIcEEEPSC_
libopencv_core.so.4.2:_ZN2cv3ocl6KernelC1EPKcRKNS0_7ProgramE
libopencv_core.so.4.2:_ZN2cv3ocl6KernelC1ERKS1_
libopencv_core.so.4.2:_ZN2cv3ocl6KernelC1Ev
libopencv_core.so.4.2:_ZN2cv3ocl6KernelC2EPKcRKNS0_13ProgramSourceERKNSt7__cxx1112basic_stringIcSt11char_traitsIcESaIcEEEPSC_
libopencv_core.so.4.2:_ZN2cv3ocl6KernelC2EPKcRKNS0_7ProgramE
libopencv_core.so.4.2:_ZN2cv3ocl6KernelC2ERKS1_
libopencv_core.so.4.2:_ZN2cv3ocl6KernelC2Ev
libopencv_core.so.4.2:_ZN2cv3ocl6KernelD1Ev
libopencv_core.so.4.2:_ZN2cv3ocl6KernelD2Ev
libopencv_core.so.4.2:_ZN2cv3ocl6KernelaSERKS1_
libopencv_core.so.4.2:_ZN2cv3ocl6finishEv
libopencv_core.so.4.2:_ZN2cv3ocl7Context10getDefaultEb
libopencv_core.so.4.2:_ZN2cv3ocl7Context10unloadProgERNS0_7ProgramE
libopencv_core.so.4.2:_ZN2cv3ocl7Context4Impl7getProgERKNS0_13ProgramSourceERKNSt7__cxx1112basic_stringIcSt11char_traitsIcESaIcEEERSB_
libopencv_core.so.4.2:_ZN2cv3ocl7Context6createEi
libopencv_core.so.4.2:_ZN2cv3ocl7Context6createEv
libopencv_core.so.4.2:_ZN2cv3ocl7Context7getProgERKNS0_13ProgramSourceERKNSt7__cxx1112basic_stringIcSt11char_traitsIcESaIcEEERSA_
libopencv_core.so.4.2:_ZN2cv3ocl7Context9setUseSVMEb
libopencv_core.so.4.2:_ZN2cv3ocl7ContextC1ERKS1_
libopencv_core.so.4.2:_ZN2cv3ocl7ContextC1Ei
libopencv_core.so.4.2:_ZN2cv3ocl7ContextC1Ev
libopencv_core.so.4.2:_ZN2cv3ocl7ContextC2ERKS1_
libopencv_core.so.4.2:_ZN2cv3ocl7ContextC2Ei
libopencv_core.so.4.2:_ZN2cv3ocl7ContextC2Ev
libopencv_core.so.4.2:_ZN2cv3ocl7ContextD1Ev
libopencv_core.so.4.2:_ZN2cv3ocl7ContextD2Ev
libopencv_core.so.4.2:_ZN2cv3ocl7ContextaSERKS1_
libopencv_core.so.4.2:_ZN2cv3ocl7Image2D14canCreateAliasERKNS_4UMatE
libopencv_core.so.4.2:_ZN2cv3ocl7Image2D17isFormatSupportedEiib
libopencv_core.so.4.2:_ZN2cv3ocl7Image2DC1ERKNS_4UMatEbb
libopencv_core.so.4.2:_ZN2cv3ocl7Image2DC1ERKS1_
libopencv_core.so.4.2:_ZN2cv3ocl7Image2DC1Ev
libopencv_core.so.4.2:_ZN2cv3ocl7Image2DC2ERKNS_4UMatEbb
libopencv_core.so.4.2:_ZN2cv3ocl7Image2DC2ERKS1_
libopencv_core.so.4.2:_ZN2cv3ocl7Image2DC2Ev
libopencv_core.so.4.2:_ZN2cv3ocl7Image2DD1Ev
libopencv_core.so.4.2:_ZN2cv3ocl7Image2DD2Ev
libopencv_core.so.4.2:_ZN2cv3ocl7Image2DaSERKS1_
libopencv_core.so.4.2:_ZN2cv3ocl7Program4readERKNSt7__cxx1112basic_stringIcSt11char_traitsIcESaIcEEES9_
libopencv_core.so.4.2:_ZN2cv3ocl7Program6createERKNS0_13ProgramSourceERKNSt7__cxx1112basic_stringIcSt11char_traitsIcESaIcEEERSA_
libopencv_core.so.4.2:_ZN2cv3ocl7Program9getPrefixERKNSt7__cxx1112basic_stringIcSt11char_traitsIcESaIcEEE
libopencv_core.so.4.2:_ZN2cv3ocl7ProgramC1ERKNS0_13ProgramSourceERKNSt7__cxx1112basic_stringIcSt11char_traitsIcESaIcEEERSA_
libopencv_core.so.4.2:_ZN2cv3ocl7ProgramC1ERKS1_
libopencv_core.so.4.2:_ZN2cv3ocl7ProgramC1Ev
libopencv_core.so.4.2:_ZN2cv3ocl7ProgramC2ERKNS0_13ProgramSourceERKNSt7__cxx1112basic_stringIcSt11char_traitsIcESaIcEEERSA_
libopencv_core.so.4.2:_ZN2cv3ocl7ProgramC2ERKS1_
libopencv_core.so.4.2:_ZN2cv3ocl7ProgramC2Ev
libopencv_core.so.4.2:_ZN2cv3ocl7ProgramD1Ev
libopencv_core.so.4.2:_ZN2cv3ocl7ProgramD2Ev
libopencv_core.so.4.2:_ZN2cv3ocl7ProgramaSERKS1_
libopencv_core.so.4.2:_ZN2cv3ocl7haveSVMEv
libopencv_core.so.4.2:_ZN2cv3ocl8Platform10getDefaultEv
libopencv_core.so.4.2:_ZN2cv3ocl8PlatformC1ERKS1_
libopencv_core.so.4.2:_ZN2cv3ocl8PlatformC1Ev
libopencv_core.so.4.2:_ZN2cv3ocl8PlatformC2ERKS1_
libopencv_core.so.4.2:_ZN2cv3ocl8PlatformC2Ev
libopencv_core.so.4.2:_ZN2cv3ocl8PlatformD1Ev
libopencv_core.so.4.2:_ZN2cv3ocl8PlatformD2Ev
libopencv_core.so.4.2:_ZN2cv3ocl8PlatformaSERKS1_
libopencv_core.so.4.2:_ZN2cv3ocl8internal10isCLBufferERNS_4UMatE
libopencv_core.so.4.2:_ZN2cv3ocl8internal14isOpenCLForcedEv
libopencv_core.so.4.2:_ZN2cv3ocl8internal26isPerformanceCheckBypassedEv
libopencv_core.so.4.2:_ZN2cv3ocl9KernelArg8ConstantERKNS_3MatE
libopencv_core.so.4.2:_ZN2cv3ocl9KernelArgC1EiPNS_4UMatEiiPKvm
libopencv_core.so.4.2:_ZN2cv3ocl9KernelArgC1Ev
libopencv_core.so.4.2:_ZN2cv3ocl9KernelArgC2EiPNS_4UMatEiiPKvm
libopencv_core.so.4.2:_ZN2cv3ocl9KernelArgC2Ev
libopencv_core.so.4.2:_ZN2cv3ocl9typeToStrEi
libopencv_core.so.4.2:_ZN2cv3ocl9useOpenCLEv
libopencv_core.so.4.2:_ZN2cv3ogl11mapGLBufferERKNS0_6BufferENS_10AccessFlagE
libopencv_core.so.4.2:_ZN2cv3ogl13unmapGLBufferERNS_4UMatE
libopencv_core.so.4.2:_ZN2cv3ogl20convertToGLTexture2DERKNS_11_InputArrayERNS0_9Texture2DE
libopencv_core.so.4.2:_ZN2cv3ogl22convertFromGLTexture2DERKNS0_9Texture2DERKNS_12_OutputArrayE
libopencv_core.so.4.2:_ZN2cv3ogl3ocl23initializeContextFromGLEv
libopencv_core.so.4.2:_ZN2cv3ogl6Arrays13setColorArrayERKNS_11_InputArrayE
libopencv_core.so.4.2:_ZN2cv3ogl6Arrays14setAutoReleaseEb
libopencv_core.so.4.2:_ZN2cv3ogl6Arrays14setNormalArrayERKNS_11_InputArrayE
libopencv_core.so.4.2:_ZN2cv3ogl6Arrays14setVertexArrayERKNS_11_InputArrayE
libopencv_core.so.4.2:_ZN2cv3ogl6Arrays15resetColorArrayEv
libopencv_core.so.4.2:_ZN2cv3ogl6Arrays16resetNormalArrayEv
libopencv_core.so.4.2:_ZN2cv3ogl6Arrays16resetVertexArrayEv
libopencv_core.so.4.2:_ZN2cv3ogl6Arrays16setTexCoordArrayERKNS_11_InputArrayE
libopencv_core.so.4.2:_ZN2cv3ogl6Arrays18resetTexCoordArrayEv
libopencv_core.so.4.2:_ZN2cv3ogl6Arrays7releaseEv
libopencv_core.so.4.2:_ZN2cv3ogl6Buffer11unmapDeviceERNS_4cuda6StreamE
libopencv_core.so.4.2:_ZN2cv3ogl6Buffer11unmapDeviceEv
libopencv_core.so.4.2:_ZN2cv3ogl6Buffer14setAutoReleaseEb
libopencv_core.so.4.2:_ZN2cv3ogl6Buffer6createEiiiNS1_6TargetEb
libopencv_core.so.4.2:_ZN2cv3ogl6Buffer6unbindENS1_6TargetE
libopencv_core.so.4.2:_ZN2cv3ogl6Buffer7mapHostENS1_6AccessE
libopencv_core.so.4.2:_ZN2cv3ogl6Buffer7releaseEv
libopencv_core.so.4.2:_ZN2cv3ogl6Buffer8copyFromERKNS_11_InputArrayENS1_6TargetEb
libopencv_core.so.4.2:_ZN2cv3ogl6Buffer8copyFromERKNS_11_InputArrayERNS_4cuda6StreamENS1_6TargetEb
libopencv_core.so.4.2:_ZN2cv3ogl6Buffer9mapDeviceERNS_4cuda6StreamE
libopencv_core.so.4.2:_ZN2cv3ogl6Buffer9mapDeviceEv
libopencv_core.so.4.2:_ZN2cv3ogl6Buffer9unmapHostEv
libopencv_core.so.4.2:_ZN2cv3ogl6BufferC1ENS_5Size_IiEEijb
libopencv_core.so.4.2:_ZN2cv3ogl6BufferC1ERKNS_11_InputArrayENS1_6TargetEb
libopencv_core.so.4.2:_ZN2cv3ogl6BufferC1Eiiijb
libopencv_core.so.4.2:_ZN2cv3ogl6BufferC1Ev
libopencv_core.so.4.2:_ZN2cv3ogl6BufferC2ENS_5Size_IiEEijb
libopencv_core.so.4.2:_ZN2cv3ogl6BufferC2ERKNS_11_InputArrayENS1_6TargetEb
libopencv_core.so.4.2:_ZN2cv3ogl6BufferC2Eiiijb
libopencv_core.so.4.2:_ZN2cv3ogl6BufferC2Ev
libopencv_core.so.4.2:_ZN2cv3ogl6renderERKNS0_6ArraysERKNS_11_InputArrayEiNS_7Scalar_IdEE
libopencv_core.so.4.2:_ZN2cv3ogl6renderERKNS0_6ArraysEiNS_7Scalar_IdEE
libopencv_core.so.4.2:_ZN2cv3ogl6renderERKNS0_9Texture2DENS_5Rect_IdEES5_
libopencv_core.so.4.2:_ZN2cv3ogl9Texture2D14setAutoReleaseEb
libopencv_core.so.4.2:_ZN2cv3ogl9Texture2D6createEiiNS1_6FormatEb
libopencv_core.so.4.2:_ZN2cv3ogl9Texture2D7releaseEv
libopencv_core.so.4.2:_ZN2cv3ogl9Texture2D8copyFromERKNS_11_InputArrayEb
libopencv_core.so.4.2:_ZN2cv3ogl9Texture2DC1ENS_5Size_IiEENS1_6FormatEjb
libopencv_core.so.4.2:_ZN2cv3ogl9Texture2DC1ERKNS_11_InputArrayEb
libopencv_core.so.4.2:_ZN2cv3ogl9Texture2DC1EiiNS1_6FormatEjb
libopencv_core.so.4.2:_ZN2cv3ogl9Texture2DC1Ev
libopencv_core.so.4.2:_ZN2cv3ogl9Texture2DC2ENS_5Size_IiEENS1_6FormatEjb
libopencv_core.so.4.2:_ZN2cv3ogl9Texture2DC2ERKNS_11_InputArrayEb
libopencv_core.so.4.2:_ZN2cv3ogl9Texture2DC2EiiNS1_6FormatEjb
libopencv_core.so.4.2:_ZN2cv3ogl9Texture2DC2Ev
libopencv_core.so.4.2:_ZN2cv3powERKNS_10softdoubleES2_
libopencv_core.so.4.2:_ZN2cv3powERKNS_11_InputArrayEdRKNS_12_OutputArrayE
libopencv_core.so.4.2:_ZN2cv3powERKNS_9softfloatES2_
libopencv_core.so.4.2:_ZN2cv3sinERKNS_10softdoubleE
libopencv_core.so.4.2:_ZN2cv3sumERKNS_11_InputArrayE
libopencv_core.so.4.2:_ZN2cv4PSNRERKNS_11_InputArrayES2_d
libopencv_core.so.4.2:_ZN2cv4UMat10deallocateEv
libopencv_core.so.4.2:_ZN2cv4UMat15getStdAllocatorEv
libopencv_core.so.4.2:_ZN2cv4UMat20updateContinuityFlagEv
libopencv_core.so.4.2:_ZN2cv4UMat3eyeENS_5Size_IiEEi
libopencv_core.so.4.2:_ZN2cv4UMat3eyeEiii
libopencv_core.so.4.2:_ZN2cv4UMat4diagERKS0_
libopencv_core.so.4.2:_ZN2cv4UMat4onesENS_5Size_IiEEi
libopencv_core.so.4.2:_ZN2cv4UMat4onesEiPKii
libopencv_core.so.4.2:_ZN2cv4UMat4onesEiii
libopencv_core.so.4.2:_ZN2cv4UMat5setToERKNS_11_InputArrayES3_
libopencv_core.so.4.2:_ZN2cv4UMat5zerosENS_5Size_IiEEi
libopencv_core.so.4.2:_ZN2cv4UMat5zerosEiPKii
libopencv_core.so.4.2:_ZN2cv4UMat5zerosEiii
libopencv_core.so.4.2:_ZN2cv4UMat6createERKSt6vectorIiSaIiEEiNS_14UMatUsageFlagsE
libopencv_core.so.4.2:_ZN2cv4UMat6createEiPKiiNS_14UMatUsageFlagsE
libopencv_core.so.4.2:_ZN2cv4UMat8copySizeERKS0_
libopencv_core.so.4.2:_ZN2cv4UMat9adjustROIEiiii
libopencv_core.so.4.2:_ZN2cv4UMatC1ERKS0_PKNS_5RangeE
libopencv_core.so.4.2:_ZN2cv4UMatC1ERKS0_RKNS_5RangeES5_
libopencv_core.so.4.2:_ZN2cv4UMatC1ERKS0_RKNS_5Rect_IiEE
libopencv_core.so.4.2:_ZN2cv4UMatC1ERKS0_RKSt6vectorINS_5RangeESaIS4_EE
libopencv_core.so.4.2:_ZN2cv4UMatC2ERKS0_PKNS_5RangeE
libopencv_core.so.4.2:_ZN2cv4UMatC2ERKS0_RKNS_5RangeES5_
libopencv_core.so.4.2:_ZN2cv4UMatC2ERKS0_RKNS_5Rect_IiEE
libopencv_core.so.4.2:_ZN2cv4UMatC2ERKS0_RKSt6vectorINS_5RangeESaIS4_EE
libopencv_core.so.4.2:_ZN2cv4UMatD1Ev
libopencv_core.so.4.2:_ZN2cv4UMatD2Ev
libopencv_core.so.4.2:_ZN2cv4UMataSERKNS_7Scalar_IdEE
libopencv_core.so.4.2:_ZN2cv4cbrtERKNS_9softfloatE
libopencv_core.so.4.2:_ZN2cv4cuda10BufferPool9getBufferEiii
libopencv_core.so.4.2:_ZN2cv4cuda10BufferPoolC1ERNS0_6StreamE
libopencv_core.so.4.2:_ZN2cv4cuda10BufferPoolC2ERNS0_6StreamE
libopencv_core.so.4.2:_ZN2cv4cuda10syncOutputERKNS0_6GpuMatERKNS_12_OutputArrayERNS0_6StreamE
libopencv_core.so.4.2:_ZN2cv4cuda11TargetArchs17hasEqualOrLessPtxEii
libopencv_core.so.4.2:_ZN2cv4cuda11TargetArchs20hasEqualOrGreaterBinEii
libopencv_core.so.4.2:_ZN2cv4cuda11TargetArchs20hasEqualOrGreaterPtxEii
libopencv_core.so.4.2:_ZN2cv4cuda11TargetArchs6hasBinEii
libopencv_core.so.4.2:_ZN2cv4cuda11TargetArchs6hasPtxEii
libopencv_core.so.4.2:_ZN2cv4cuda11TargetArchs9builtWithENS0_10FeatureSetE
libopencv_core.so.4.2:_ZN2cv4cuda11getInputMatERKNS_11_InputArrayERNS0_6StreamE
libopencv_core.so.4.2:_ZN2cv4cuda11resetDeviceEv
libopencv_core.so.4.2:_ZN2cv4cuda11setGlDeviceEi
libopencv_core.so.4.2:_ZN2cv4cuda12getOutputMatERKNS_12_OutputArrayEiiiRNS0_6StreamE
libopencv_core.so.4.2:_ZN2cv4cuda14deviceSupportsENS0_10FeatureSetE
libopencv_core.so.4.2:_ZN2cv4cuda16createContinuousEiiiRKNS_12_OutputArrayE
libopencv_core.so.4.2:_ZN2cv4cuda18ensureSizeIsEnoughEiiiRKNS_12_OutputArrayE
libopencv_core.so.4.2:_ZN2cv4cuda18getNppErrorMessageB5cxx11Ei
libopencv_core.so.4.2:_ZN2cv4cuda18registerPageLockedERNS_3MatE
libopencv_core.so.4.2:_ZN2cv4cuda18setBufferPoolUsageEb
libopencv_core.so.4.2:_ZN2cv4cuda19printCudaDeviceInfoEi
libopencv_core.so.4.2:_ZN2cv4cuda19setBufferPoolConfigEimi
libopencv_core.so.4.2:_ZN2cv4cuda20unregisterPageLockedERNS_3MatE
libopencv_core.so.4.2:_ZN2cv4cuda24printShortCudaDeviceInfoEi
libopencv_core.so.4.2:_ZN2cv4cuda25getCudaEnabledDeviceCountEv
libopencv_core.so.4.2:_ZN2cv4cuda28getCudaDriverApiErrorMessageB5cxx11Ei
libopencv_core.so.4.2:_ZN2cv4cuda5Event11elapsedTimeERKS1_S3_
libopencv_core.so.4.2:_ZN2cv4cuda5Event17waitForCompletionEv
libopencv_core.so.4.2:_ZN2cv4cuda5Event6recordERNS0_6StreamE
libopencv_core.so.4.2:_ZN2cv4cuda5EventC1ENS1_11CreateFlagsE
libopencv_core.so.4.2:_ZN2cv4cuda5EventC2ENS1_11CreateFlagsE
libopencv_core.so.4.2:_ZN2cv4cuda6GpuMat16defaultAllocatorEv
libopencv_core.so.4.2:_ZN2cv4cuda6GpuMat19setDefaultAllocatorEPNS1_9AllocatorE
libopencv_core.so.4.2:_ZN2cv4cuda6GpuMat20updateContinuityFlagEv
libopencv_core.so.4.2:_ZN2cv4cuda6GpuMat5setToENS_7Scalar_IdEERKNS_11_InputArrayERNS0_6StreamE
libopencv_core.so.4.2:_ZN2cv4cuda6GpuMat5setToENS_7Scalar_IdEERNS0_6StreamE
libopencv_core.so.4.2:_ZN2cv4cuda6GpuMat6createEiii
libopencv_core.so.4.2:_ZN2cv4cuda6GpuMat6uploadERKNS_11_InputArrayE
libopencv_core.so.4.2:_ZN2cv4cuda6GpuMat6uploadERKNS_11_InputArrayERNS0_6StreamE
libopencv_core.so.4.2:_ZN2cv4cuda6GpuMat7releaseEv
libopencv_core.so.4.2:_ZN2cv4cuda6GpuMat9adjustROIEiiii
libopencv_core.so.4.2:_ZN2cv4cuda6GpuMatC1ENS_5Size_IiEEiPvm
libopencv_core.so.4.2:_ZN2cv4cuda6GpuMatC1ERKS1_NS_5RangeES4_
libopencv_core.so.4.2:_ZN2cv4cuda6GpuMatC1ERKS1_NS_5Rect_IiEE
libopencv_core.so.4.2:_ZN2cv4cuda6GpuMatC1EiiiPvm
libopencv_core.so.4.2:_ZN2cv4cuda6GpuMatC2ENS_5Size_IiEEiPvm
libopencv_core.so.4.2:_ZN2cv4cuda6GpuMatC2ERKS1_NS_5RangeES4_
libopencv_core.so.4.2:_ZN2cv4cuda6GpuMatC2ERKS1_NS_5Rect_IiEE
libopencv_core.so.4.2:_ZN2cv4cuda6GpuMatC2EiiiPvm
libopencv_core.so.4.2:_ZN2cv4cuda6Stream17waitForCompletionEv
libopencv_core.so.4.2:_ZN2cv4cuda6Stream19enqueueHostCallbackEPFviPvES2_
libopencv_core.so.4.2:_ZN2cv4cuda6Stream4NullEv
libopencv_core.so.4.2:_ZN2cv4cuda6Stream9waitEventERKNS0_5EventE
libopencv_core.so.4.2:_ZN2cv4cuda6StreamC1ERKNS_3PtrINS0_6GpuMat9AllocatorEEE
libopencv_core.so.4.2:_ZN2cv4cuda6StreamC1Ev
libopencv_core.so.4.2:_ZN2cv4cuda6StreamC2ERKNS_3PtrINS0_6GpuMat9AllocatorEEE
libopencv_core.so.4.2:_ZN2cv4cuda6StreamC2Ev
libopencv_core.so.4.2:_ZN2cv4cuda7HostMem12getAllocatorENS1_9AllocTypeE
libopencv_core.so.4.2:_ZN2cv4cuda7HostMem6createEiii
libopencv_core.so.4.2:_ZN2cv4cuda7HostMem7releaseEv
libopencv_core.so.4.2:_ZN2cv4cuda9getDeviceEv
libopencv_core.so.4.2:_ZN2cv4cuda9setDeviceEi
libopencv_core.so.4.2:_ZN2cv4flipERKNS_11_InputArrayERKNS_12_OutputArrayEi
libopencv_core.so.4.2:_ZN2cv4gemmERKNS_11_InputArrayES2_dS2_dRKNS_12_OutputArrayEi
libopencv_core.so.4.2:_ZN2cv4globENSt7__cxx1112basic_stringIcSt11char_traitsIcESaIcEEERSt6vectorIS5_SaIS5_EEb
libopencv_core.so.4.2:_ZN2cv4idctERKNS_11_InputArrayERKNS_12_OutputArrayEi
libopencv_core.so.4.2:_ZN2cv4idftERKNS_11_InputArrayERKNS_12_OutputArrayEii
libopencv_core.so.4.2:_ZN2cv4meanERKNS_11_InputArrayES2_
libopencv_core.so.4.2:_ZN2cv4normERKNS_11_InputArrayES2_iS2_
libopencv_core.so.4.2:_ZN2cv4normERKNS_11_InputArrayEiS2_
libopencv_core.so.4.2:_ZN2cv4normERKNS_9SparseMatEi
libopencv_core.so.4.2:_ZN2cv4readERKNS_8FileNodeERNS_3MatERKS3_
libopencv_core.so.4.2:_ZN2cv4readERKNS_8FileNodeERNS_6DMatchERKS3_
libopencv_core.so.4.2:_ZN2cv4readERKNS_8FileNodeERNS_8KeyPointERKS3_
libopencv_core.so.4.2:_ZN2cv4readERKNS_8FileNodeERNS_9SparseMatERKS3_
libopencv_core.so.4.2:_ZN2cv4readERKNS_8FileNodeERNSt7__cxx1112basic_stringIcSt11char_traitsIcESaIcEEERKS8_
libopencv_core.so.4.2:_ZN2cv4readERKNS_8FileNodeERSt6vectorINS_6DMatchESaIS4_EE
libopencv_core.so.4.2:_ZN2cv4readERKNS_8FileNodeERSt6vectorINS_8KeyPointESaIS4_EE
libopencv_core.so.4.2:_ZN2cv4readERKNS_8FileNodeERdd
libopencv_core.so.4.2:_ZN2cv4readERKNS_8FileNodeERff
libopencv_core.so.4.2:_ZN2cv4readERKNS_8FileNodeERii
libopencv_core.so.4.2:_ZN2cv4sortERKNS_11_InputArrayERKNS_12_OutputArrayEi
libopencv_core.so.4.2:_ZN2cv4sqrtERKNS_10softdoubleE
libopencv_core.so.4.2:_ZN2cv4sqrtERKNS_11_InputArrayERKNS_12_OutputArrayE
libopencv_core.so.4.2:_ZN2cv4sqrtERKNS_9softfloatE
libopencv_core.so.4.2:_ZN2cv4swapERNS_3MatES1_
libopencv_core.so.4.2:_ZN2cv4swapERNS_4UMatES1_
libopencv_core.so.4.2:_ZN2cv5MatOpC1Ev
libopencv_core.so.4.2:_ZN2cv5MatOpC2Ev
libopencv_core.so.4.2:_ZN2cv5MatOpD0Ev
libopencv_core.so.4.2:_ZN2cv5MatOpD1Ev
libopencv_core.so.4.2:_ZN2cv5MatOpD2Ev
libopencv_core.so.4.2:_ZN2cv5eigenERKNS_11_InputArrayERKNS_12_OutputArrayES5_
libopencv_core.so.4.2:_ZN2cv5errorERKNS_9ExceptionE
libopencv_core.so.4.2:_ZN2cv5errorEiRKNSt7__cxx1112basic_stringIcSt11char_traitsIcESaIcEEEPKcS9_i
libopencv_core.so.4.2:_ZN2cv5instr10resetTraceEv
libopencv_core.so.4.2:_ZN2cv5instr18useInstrumentationEv
libopencv_core.so.4.2:_ZN2cv5instr21setUseInstrumentationEb
libopencv_core.so.4.2:_ZN2cv5instr8NodeDataC1EPKcS3_iPvbNS0_4TYPEENS0_4IMPLE
libopencv_core.so.4.2:_ZN2cv5instr8NodeDataC1ERS1_
libopencv_core.so.4.2:_ZN2cv5instr8NodeDataC2EPKcS3_iPvbNS0_4TYPEENS0_4IMPLE
libopencv_core.so.4.2:_ZN2cv5instr8NodeDataC2ERS1_
libopencv_core.so.4.2:_ZN2cv5instr8NodeDataD1Ev
libopencv_core.so.4.2:_ZN2cv5instr8NodeDataD2Ev
libopencv_core.so.4.2:_ZN2cv5instr8NodeDataaSERKS1_
libopencv_core.so.4.2:_ZN2cv5instr8getFlagsEv
libopencv_core.so.4.2:_ZN2cv5instr8getTraceEv
libopencv_core.so.4.2:_ZN2cv5instr8setFlagsENS0_5FLAGSE
libopencv_core.so.4.2:_ZN2cv5mergeEPKNS_3MatEmRKNS_12_OutputArrayE
libopencv_core.so.4.2:_ZN2cv5mergeERKNS_11_InputArrayERKNS_12_OutputArrayE
libopencv_core.so.4.2:_ZN2cv5phaseERKNS_11_InputArrayES2_RKNS_12_OutputArrayEb
libopencv_core.so.4.2:_ZN2cv5randnERKNS_17_InputOutputArrayERKNS_11_InputArrayES5_
libopencv_core.so.4.2:_ZN2cv5randuERKNS_17_InputOutputArrayERKNS_11_InputArrayES5_
libopencv_core.so.4.2:_ZN2cv5solveERKNS_11_InputArrayES2_RKNS_12_OutputArrayEi
libopencv_core.so.4.2:_ZN2cv5splitERKNS_11_InputArrayERKNS_12_OutputArrayE
libopencv_core.so.4.2:_ZN2cv5splitERKNS_3MatEPS0_
libopencv_core.so.4.2:_ZN2cv5traceERKNS_11_InputArrayE
libopencv_core.so.4.2:_ZN2cv5utils11getThreadIDEv
libopencv_core.so.4.2:_ZN2cv5utils12findDataFileERKNSt7__cxx1112basic_stringIcSt11char_traitsIcESaIcEEEPKcPKSt6vectorIS6_SaIS6_EESF_
libopencv_core.so.4.2:_ZN2cv5utils12findDataFileERKNSt7__cxx1112basic_stringIcSt11char_traitsIcESaIcEEEbPKc
libopencv_core.so.4.2:_ZN2cv5utils14dumpInputArrayB5cxx11ERKNS_11_InputArrayE
libopencv_core.so.4.2:_ZN2cv5utils14getBinLocationERNSt7__cxx1112basic_stringIcSt11char_traitsIcESaIcEEE
libopencv_core.so.4.2:_ZN2cv5utils17addDataSearchPathERKNSt7__cxx1112basic_stringIcSt11char_traitsIcESaIcEEE
libopencv_core.so.4.2:_ZN2cv5utils20dumpInputOutputArrayB5cxx11ERKNS_17_InputOutputArrayE
libopencv_core.so.4.2:_ZN2cv5utils22dumpInputArrayOfArraysB5cxx11ERKNS_11_InputArrayE
libopencv_core.so.4.2:_ZN2cv5utils25addDataSearchSubDirectoryERKNSt7__cxx1112basic_stringIcSt11char_traitsIcESaIcEEE
libopencv_core.so.4.2:_ZN2cv5utils28dumpInputOutputArrayOfArraysB5cxx11ERKNS_17_InputOutputArrayE
libopencv_core.so.4.2:_ZN2cv5utils29getConfigurationParameterBoolEPKcb
libopencv_core.so.4.2:_ZN2cv5utils2fs10remove_allERKNSt7__cxx1112basic_stringIcSt11char_traitsIcESaIcEEE
libopencv_core.so.4.2:_ZN2cv5utils2fs11isDirectoryERKNSt7__cxx1112basic_stringIcSt11char_traitsIcESaIcEEE
libopencv_core.so.4.2:_ZN2cv5utils2fs13glob_relativeERKNSt7__cxx1112basic_stringIcSt11char_traitsIcESaIcEEES9_RSt6vectorIS7_SaIS7_EEbb
libopencv_core.so.4.2:_ZN2cv5utils2fs15createDirectoryERKNSt7__cxx1112basic_stringIcSt11char_traitsIcESaIcEEE
libopencv_core.so.4.2:_ZN2cv5utils2fs17createDirectoriesERKNSt7__cxx1112basic_stringIcSt11char_traitsIcESaIcEEE
libopencv_core.so.4.2:_ZN2cv5utils2fs17getCacheDirectoryB5cxx11EPKcS3_
libopencv_core.so.4.2:_ZN2cv5utils2fs4globERKNSt7__cxx1112basic_stringIcSt11char_traitsIcESaIcEEES9_RSt6vectorIS7_SaIS7_EEbb
libopencv_core.so.4.2:_ZN2cv5utils2fs4joinERKNSt7__cxx1112basic_stringIcSt11char_traitsIcESaIcEEES9_
libopencv_core.so.4.2:_ZN2cv5utils2fs6existsERKNSt7__cxx1112basic_stringIcSt11char_traitsIcESaIcEEE
libopencv_core.so.4.2:_ZN2cv5utils2fs6getcwdB5cxx11Ev
libopencv_core.so.4.2:_ZN2cv5utils2fs8FileLock11lock_sharedEv
libopencv_core.so.4.2:_ZN2cv5utils2fs8FileLock13unlock_sharedEv
libopencv_core.so.4.2:_ZN2cv5utils2fs8FileLock4lockEv
libopencv_core.so.4.2:_ZN2cv5utils2fs8FileLock6unlockEv
libopencv_core.so.4.2:_ZN2cv5utils2fs8FileLockC1EPKc
libopencv_core.so.4.2:_ZN2cv5utils2fs8FileLockC2EPKc
libopencv_core.so.4.2:_ZN2cv5utils2fs8FileLockD1Ev
libopencv_core.so.4.2:_ZN2cv5utils2fs8FileLockD2Ev
libopencv_core.so.4.2:_ZN2cv5utils2fs9canonicalERKNSt7__cxx1112basic_stringIcSt11char_traitsIcESaIcEEE
libopencv_core.so.4.2:_ZN2cv5utils2fs9getParentERKNSt7__cxx1112basic_stringIcSt11char_traitsIcESaIcEEE
libopencv_core.so.4.2:_ZN2cv5utils2fs9getParentERKNSt7__cxx1112basic_stringIwSt11char_traitsIwESaIwEEE
libopencv_core.so.4.2:_ZN2cv5utils30getConfigurationParameterPathsEPKcRKSt6vectorINSt7__cxx1112basic_stringIcSt11char_traitsIcESaIcEEESaIS9_EE
libopencv_core.so.4.2:_ZN2cv5utils30getConfigurationParameterSizeTEPKcm
libopencv_core.so.4.2:_ZN2cv5utils31getConfigurationParameterStringB5cxx11EPKcS2_
libopencv_core.so.4.2:_ZN2cv5utils5trace7details12TraceManager11isActivatedEv
libopencv_core.so.4.2:_ZN2cv5utils5trace7details12TraceManagerC1Ev
libopencv_core.so.4.2:_ZN2cv5utils5trace7details12TraceManagerC2Ev
libopencv_core.so.4.2:_ZN2cv5utils5trace7details12TraceManagerD1Ev
libopencv_core.so.4.2:_ZN2cv5utils5trace7details12TraceManagerD2Ev
libopencv_core.so.4.2:_ZN2cv5utils5trace7details15getTraceManagerEv
libopencv_core.so.4.2:_ZN2cv5utils5trace7details6Region17LocationExtraData4initERKNS3_21LocationStaticStorageE
libopencv_core.so.4.2:_ZN2cv5utils5trace7details6Region17LocationExtraDataC1ERKNS3_21LocationStaticStorageE
libopencv_core.so.4.2:_ZN2cv5utils5trace7details6Region17LocationExtraDataC2ERKNS3_21LocationStaticStorageE
libopencv_core.so.4.2:_ZN2cv5utils5trace7details6Region4Impl11enterRegionERNS2_23TraceManagerThreadLocalE
libopencv_core.so.4.2:_ZN2cv5utils5trace7details6Region4Impl11leaveRegionERNS2_23TraceManagerThreadLocalE
libopencv_core.so.4.2:_ZN2cv5utils5trace7details6Region4Impl14registerRegionERNS2_23TraceManagerThreadLocalE
libopencv_core.so.4.2:_ZN2cv5utils5trace7details6Region4Impl7releaseEv
libopencv_core.so.4.2:_ZN2cv5utils5trace7details6Region4ImplC1ERNS2_23TraceManagerThreadLocalEPS3_RS3_RKNS3_21LocationStaticStorageEl
libopencv_core.so.4.2:_ZN2cv5utils5trace7details6Region4ImplC2ERNS2_23TraceManagerThreadLocalEPS3_RS3_RKNS3_21LocationStaticStorageEl
libopencv_core.so.4.2:_ZN2cv5utils5trace7details6Region4ImplD1Ev
libopencv_core.so.4.2:_ZN2cv5utils5trace7details6Region4ImplD2Ev
libopencv_core.so.4.2:_ZN2cv5utils5trace7details6Region7destroyEv
libopencv_core.so.4.2:_ZN2cv5utils5trace7details6RegionC1ERKNS3_21LocationStaticStorageE
libopencv_core.so.4.2:_ZN2cv5utils5trace7details6RegionC2ERKNS3_21LocationStaticStorageE
libopencv_core.so.4.2:_ZN2cv5utils5trace7details8traceArgERKNS2_8TraceArgEPKc
libopencv_core.so.4.2:_ZN2cv5utils5trace7details8traceArgERKNS2_8TraceArgEd
libopencv_core.so.4.2:_ZN2cv5utils5trace7details8traceArgERKNS2_8TraceArgEi
libopencv_core.so.4.2:_ZN2cv5utils5trace7details8traceArgERKNS2_8TraceArgEl
libopencv_core.so.4.2:_ZN2cv5utils7logging11getLogLevelEv
libopencv_core.so.4.2:_ZN2cv5utils7logging11setLogLevelENS1_8LogLevelE
libopencv_core.so.4.2:_ZN2cv5utils7logging14getLogTagLevelEPKc
libopencv_core.so.4.2:_ZN2cv5utils7logging14registerLogTagEPNS1_6LogTagE
libopencv_core.so.4.2:_ZN2cv5utils7logging14setLogTagLevelEPKcNS1_8LogLevelE
libopencv_core.so.4.2:_ZN2cv5utils7logging8internal15getGlobalLogTagEv
libopencv_core.so.4.2:_ZN2cv5utils7logging8internal15writeLogMessageENS1_8LogLevelEPKc
libopencv_core.so.4.2:_ZN2cv5utils7logging8internal17writeLogMessageExENS1_8LogLevelEPKcS5_iS5_S5_
libopencv_core.so.4.2:_ZN2cv5writeERNS_11FileStorageERKNSt7__cxx1112basic_stringIcSt11char_traitsIcESaIcEEERKNS_3MatE
libopencv_core.so.4.2:_ZN2cv5writeERNS_11FileStorageERKNSt7__cxx1112basic_stringIcSt11char_traitsIcESaIcEEERKNS_9SparseMatE
libopencv_core.so.4.2:_ZN2cv5writeERNS_11FileStorageERKNSt7__cxx1112basic_stringIcSt11char_traitsIcESaIcEEERKSt6vectorINS_6DMatchESaISB_EE
libopencv_core.so.4.2:_ZN2cv5writeERNS_11FileStorageERKNSt7__cxx1112basic_stringIcSt11char_traitsIcESaIcEEERKSt6vectorINS_8KeyPointESaISB_EE
libopencv_core.so.4.2:_ZN2cv5writeERNS_11FileStorageERKNSt7__cxx1112basic_stringIcSt11char_traitsIcESaIcEEES9_
libopencv_core.so.4.2:_ZN2cv5writeERNS_11FileStorageERKNSt7__cxx1112basic_stringIcSt11char_traitsIcESaIcEEEd
libopencv_core.so.4.2:_ZN2cv5writeERNS_11FileStorageERKNSt7__cxx1112basic_stringIcSt11char_traitsIcESaIcEEEf
libopencv_core.so.4.2:_ZN2cv5writeERNS_11FileStorageERKNSt7__cxx1112basic_stringIcSt11char_traitsIcESaIcEEEi
libopencv_core.so.4.2:_ZN2cv6copyToERKNS_11_InputArrayERKNS_12_OutputArrayES2_
libopencv_core.so.4.2:_ZN2cv6detail13typeToString_B5cxx11Ei
libopencv_core.so.4.2:_ZN2cv6detail14depthToString_Ei
libopencv_core.so.4.2:_ZN2cv6detail17check_failed_autoENS_5Size_IiEERKNS0_12CheckContextE
libopencv_core.so.4.2:_ZN2cv6detail17check_failed_autoENS_5Size_IiEES2_RKNS0_12CheckContextE
libopencv_core.so.4.2:_ZN2cv6detail17check_failed_autoEdRKNS0_12CheckContextE
libopencv_core.so.4.2:_ZN2cv6detail17check_failed_autoEddRKNS0_12CheckContextE
libopencv_core.so.4.2:_ZN2cv6detail17check_failed_autoEfRKNS0_12CheckContextE
libopencv_core.so.4.2:_ZN2cv6detail17check_failed_autoEffRKNS0_12CheckContextE
libopencv_core.so.4.2:_ZN2cv6detail17check_failed_autoEiRKNS0_12CheckContextE
libopencv_core.so.4.2:_ZN2cv6detail17check_failed_autoEiiRKNS0_12CheckContextE
libopencv_core.so.4.2:_ZN2cv6detail17check_failed_autoEmRKNS0_12CheckContextE
libopencv_core.so.4.2:_ZN2cv6detail17check_failed_autoEmmRKNS0_12CheckContextE
libopencv_core.so.4.2:_ZN2cv6detail20check_failed_MatTypeEiRKNS0_12CheckContextE
libopencv_core.so.4.2:_ZN2cv6detail20check_failed_MatTypeEiiRKNS0_12CheckContextE
libopencv_core.so.4.2:_ZN2cv6detail21check_failed_MatDepthEiRKNS0_12CheckContextE
libopencv_core.so.4.2:_ZN2cv6detail21check_failed_MatDepthEiiRKNS0_12CheckContextE
libopencv_core.so.4.2:_ZN2cv6detail24check_failed_MatChannelsEiRKNS0_12CheckContextE
libopencv_core.so.4.2:_ZN2cv6detail24check_failed_MatChannelsEiiRKNS0_12CheckContextE
libopencv_core.so.4.2:_ZN2cv6divideERKNS_11_InputArrayES2_RKNS_12_OutputArrayEdi
libopencv_core.so.4.2:_ZN2cv6divideEdRKNS_11_InputArrayERKNS_12_OutputArrayEi
libopencv_core.so.4.2:_ZN2cv6formatB5cxx11EPKcz
libopencv_core.so.4.2:_ZN2cv6invertERKNS_11_InputArrayERKNS_12_OutputArrayEi
libopencv_core.so.4.2:_ZN2cv6kmeansERKNS_11_InputArrayEiRKNS_17_InputOutputArrayENS_12TermCriteriaEiiRKNS_12_OutputArrayE
libopencv_core.so.4.2:_ZN2cv6mulAddERKNS_10softdoubleES2_S2_
libopencv_core.so.4.2:_ZN2cv6mulAddERKNS_9softfloatES2_S2_
libopencv_core.so.4.2:_ZN2cv6reduceERKNS_11_InputArrayERKNS_12_OutputArrayEiii
libopencv_core.so.4.2:_ZN2cv6repeatERKNS_11_InputArrayEiiRKNS_12_OutputArrayE
libopencv_core.so.4.2:_ZN2cv6repeatERKNS_3MatEii
libopencv_core.so.4.2:_ZN2cv6rotateERKNS_11_InputArrayERKNS_12_OutputArrayEi
libopencv_core.so.4.2:_ZN2cv6seqPopEP5CvSeqPv
libopencv_core.so.4.2:_ZN2cv6theRNGEv
libopencv_core.so.4.2:_ZN2cv7MatExprC1ERKNS_3MatE
libopencv_core.so.4.2:_ZN2cv7MatExprC2ERKNS_3MatE
libopencv_core.so.4.2:_ZN2cv7absdiffERKNS_11_InputArrayES2_RKNS_12_OutputArrayE
libopencv_core.so.4.2:_ZN2cv7compareERKNS_11_InputArrayES2_RKNS_12_OutputArrayEi
libopencv_core.so.4.2:_ZN2cv7directx20getTypeFromD3DFORMATEi
libopencv_core.so.4.2:_ZN2cv7directx22getTypeFromDXGI_FORMATEi
libopencv_core.so.4.2:_ZN2cv7directx23convertToD3D10Texture2DERKNS_11_InputArrayEP15ID3D10Texture2D
libopencv_core.so.4.2:_ZN2cv7directx23convertToD3D11Texture2DERKNS_11_InputArrayEP15ID3D11Texture2D
libopencv_core.so.4.2:_ZN2cv7directx25convertFromD3D10Texture2DEP15ID3D10Texture2DRKNS_12_OutputArrayE
libopencv_core.so.4.2:_ZN2cv7directx25convertFromD3D11Texture2DEP15ID3D11Texture2DRKNS_12_OutputArrayE
libopencv_core.so.4.2:_ZN2cv7directx25convertToDirect3DSurface9ERKNS_11_InputArrayEP17IDirect3DSurface9Pv
libopencv_core.so.4.2:_ZN2cv7directx27convertFromDirect3DSurface9EP17IDirect3DSurface9RKNS_12_OutputArrayEPv
libopencv_core.so.4.2:_ZN2cv7directx3ocl32initializeContextFromD3D10DeviceEP12ID3D10Device
libopencv_core.so.4.2:_ZN2cv7directx3ocl32initializeContextFromD3D11DeviceEP12ID3D11Device
libopencv_core.so.4.2:_ZN2cv7directx3ocl36initializeContextFromDirect3DDevice9EP16IDirect3DDevice9
libopencv_core.so.4.2:_ZN2cv7directx3ocl38initializeContextFromDirect3DDevice9ExEP18IDirect3DDevice9Ex
libopencv_core.so.4.2:_ZN2cv7hconcatEPKNS_3MatEmRKNS_12_OutputArrayE
libopencv_core.so.4.2:_ZN2cv7hconcatERKNS_11_InputArrayERKNS_12_OutputArrayE
libopencv_core.so.4.2:_ZN2cv7hconcatERKNS_11_InputArrayES2_RKNS_12_OutputArrayE
libopencv_core.so.4.2:_ZN2cv7inRangeERKNS_11_InputArrayES2_S2_RKNS_12_OutputArrayE
libopencv_core.so.4.2:_ZN2cv7noArrayEv
libopencv_core.so.4.2:_ZN2cv7samples24addSamplesDataSearchPathERKNSt7__cxx1112basic_stringIcSt11char_traitsIcESaIcEEE
libopencv_core.so.4.2:_ZN2cv7samples32addSamplesDataSearchSubDirectoryERKNSt7__cxx1112basic_stringIcSt11char_traitsIcESaIcEEE
libopencv_core.so.4.2:_ZN2cv7samples8findFileERKNSt7__cxx1112basic_stringIcSt11char_traitsIcESaIcEEEbb
libopencv_core.so.4.2:_ZN2cv7seqPushEP5CvSeqPKv
libopencv_core.so.4.2:_ZN2cv7solveLPERKNS_11_InputArrayES2_RKNS_12_OutputArrayE
libopencv_core.so.4.2:_ZN2cv7sortIdxERKNS_11_InputArrayERKNS_12_OutputArrayEi
libopencv_core.so.4.2:_ZN2cv7vconcatEPKNS_3MatEmRKNS_12_OutputArrayE
libopencv_core.so.4.2:_ZN2cv7vconcatERKNS_11_InputArrayERKNS_12_OutputArrayE
libopencv_core.so.4.2:_ZN2cv7vconcatERKNS_11_InputArrayES2_RKNS_12_OutputArrayE
libopencv_core.so.4.2:_ZN2cv8CholeskyEPdmiS0_mi
libopencv_core.so.4.2:_ZN2cv8CholeskyEPfmiS0_mi
libopencv_core.so.4.2:_ZN2cv8FileNode12isCollectionEi
libopencv_core.so.4.2:_ZN2cv8FileNode17isEmptyCollectionEi
libopencv_core.so.4.2:_ZN2cv8FileNode3ptrEv
libopencv_core.so.4.2:_ZN2cv8FileNode5isMapEi
libopencv_core.so.4.2:_ZN2cv8FileNode5isSeqEi
libopencv_core.so.4.2:_ZN2cv8FileNode6isFlowEi
libopencv_core.so.4.2:_ZN2cv8FileNode8setValueEiPKvi
libopencv_core.so.4.2:_ZN2cv8FileNodeC1EPKNS_11FileStorageEmm
libopencv_core.so.4.2:_ZN2cv8FileNodeC1ERKS0_
libopencv_core.so.4.2:_ZN2cv8FileNodeC1Ev
libopencv_core.so.4.2:_ZN2cv8FileNodeC2EPKNS_11FileStorageEmm
libopencv_core.so.4.2:_ZN2cv8FileNodeC2ERKS0_
libopencv_core.so.4.2:_ZN2cv8FileNodeC2Ev
libopencv_core.so.4.2:_ZN2cv8FileNodeaSERKS0_
libopencv_core.so.4.2:_ZN2cv8KeyPoint7convertERKSt6vectorINS_6Point_IfEESaIS3_EERS1_IS0_SaIS0_EEffii
libopencv_core.so.4.2:_ZN2cv8KeyPoint7convertERKSt6vectorIS0_SaIS0_EERS1_INS_6Point_IfEESaIS7_EERKS1_IiSaIiEE
libopencv_core.so.4.2:_ZN2cv8KeyPoint7overlapERKS0_S2_
libopencv_core.so.4.2:_ZN2cv8SVDecompERKNS_11_InputArrayERKNS_12_OutputArrayES5_S5_i
libopencv_core.so.4.2:_ZN2cv8UMatData4lockEv
libopencv_core.so.4.2:_ZN2cv8UMatData6unlockEv
libopencv_core.so.4.2:_ZN2cv8UMatDataC1EPKNS_12MatAllocatorE
libopencv_core.so.4.2:_ZN2cv8UMatDataC2EPKNS_12MatAllocatorE
libopencv_core.so.4.2:_ZN2cv8UMatDataD1Ev
libopencv_core.so.4.2:_ZN2cv8UMatDataD2Ev
libopencv_core.so.4.2:_ZN2cv8clearSeqEP5CvSeq
libopencv_core.so.4.2:_ZN2cv8cubeRootEf
libopencv_core.so.4.2:_ZN2cv8fastFreeEPv
libopencv_core.so.4.2:_ZN2cv8internal18WriteStructContextC1ERNS_11FileStorageERKNSt7__cxx1112basic_stringIcSt11char_traitsIcESaIcEEEiSB_
libopencv_core.so.4.2:_ZN2cv8internal18WriteStructContextC2ERNS_11FileStorageERKNSt7__cxx1112basic_stringIcSt11char_traitsIcESaIcEEEiSB_
libopencv_core.so.4.2:_ZN2cv8internal18WriteStructContextD1Ev
libopencv_core.so.4.2:_ZN2cv8internal18WriteStructContextD2Ev
libopencv_core.so.4.2:_ZN2cv8multiplyERKNS_11_InputArrayES2_RKNS_12_OutputArrayEdi
libopencv_core.so.4.2:_ZN2cv8scaleAddERKNS_11_InputArrayEdS2_RKNS_12_OutputArrayE
libopencv_core.so.4.2:_ZN2cv8subtractERKNS_11_InputArrayES2_RKNS_12_OutputArrayES2_i
libopencv_core.so.4.2:_ZN2cv8tempfileB5cxx11EPKc
libopencv_core.so.4.2:_ZN2cv8va_intel18convertToVASurfaceEPvRKNS_11_InputArrayEjNS_5Size_IiEE
libopencv_core.so.4.2:_ZN2cv8va_intel20convertFromVASurfaceEPvjNS_5Size_IiEERKNS_12_OutputArrayE
libopencv_core.so.4.2:_ZN2cv8va_intel3ocl23initializeContextFromVAEPvb
libopencv_core.so.4.2:_ZN2cv9AlgorithmC1Ev
libopencv_core.so.4.2:_ZN2cv9AlgorithmC2Ev
libopencv_core.so.4.2:_ZN2cv9AlgorithmD0Ev
libopencv_core.so.4.2:_ZN2cv9AlgorithmD1Ev
libopencv_core.so.4.2:_ZN2cv9AlgorithmD2Ev
libopencv_core.so.4.2:_ZN2cv9Exception13formatMessageEv
libopencv_core.so.4.2:_ZN2cv9ExceptionC1EiRKNSt7__cxx1112basic_stringIcSt11char_traitsIcESaIcEEES8_S8_i
libopencv_core.so.4.2:_ZN2cv9ExceptionC1Ev
libopencv_core.so.4.2:_ZN2cv9ExceptionC2EiRKNSt7__cxx1112basic_stringIcSt11char_traitsIcESaIcEEES8_S8_i
libopencv_core.so.4.2:_ZN2cv9ExceptionC2Ev
libopencv_core.so.4.2:_ZN2cv9ExceptionD0Ev
libopencv_core.so.4.2:_ZN2cv9ExceptionD1Ev
libopencv_core.so.4.2:_ZN2cv9ExceptionD2Ev
libopencv_core.so.4.2:_ZN2cv9FormattedD0Ev
libopencv_core.so.4.2:_ZN2cv9FormattedD1Ev
libopencv_core.so.4.2:_ZN2cv9FormattedD2Ev
libopencv_core.so.4.2:_ZN2cv9Formatter3getENS0_10FormatTypeE
libopencv_core.so.4.2:_ZN2cv9FormatterD0Ev
libopencv_core.so.4.2:_ZN2cv9FormatterD1Ev
libopencv_core.so.4.2:_ZN2cv9FormatterD2Ev
libopencv_core.so.4.2:_ZN2cv9SparseMat10removeNodeEmmm
libopencv_core.so.4.2:_ZN2cv9SparseMat13resizeHashTabEm
libopencv_core.so.4.2:_ZN2cv9SparseMat3Hdr5clearEv
libopencv_core.so.4.2:_ZN2cv9SparseMat3HdrC1EiPKii
libopencv_core.so.4.2:_ZN2cv9SparseMat3HdrC2EiPKii
libopencv_core.so.4.2:_ZN2cv9SparseMat3ptrEPKibPm
libopencv_core.so.4.2:_ZN2cv9SparseMat3ptrEibPm
libopencv_core.so.4.2:_ZN2cv9SparseMat3ptrEiibPm
libopencv_core.so.4.2:_ZN2cv9SparseMat3ptrEiiibPm
libopencv_core.so.4.2:_ZN2cv9SparseMat5clearEv
libopencv_core.so.4.2:_ZN2cv9SparseMat5eraseEPKiPm
libopencv_core.so.4.2:_ZN2cv9SparseMat5eraseEiiPm
libopencv_core.so.4.2:_ZN2cv9SparseMat5eraseEiiiPm
libopencv_core.so.4.2:_ZN2cv9SparseMat6createEiPKii
libopencv_core.so.4.2:_ZN2cv9SparseMat7newNodeEPKim
libopencv_core.so.4.2:_ZN2cv9SparseMatC1ERKNS_3MatE
libopencv_core.so.4.2:_ZN2cv9SparseMatC2ERKNS_3MatE
libopencv_core.so.4.2:_ZN2cv9fastAtan2Eff
libopencv_core.so.4.2:_ZN2cv9magnitudeERKNS_11_InputArrayES2_RKNS_12_OutputArrayE
libopencv_core.so.4.2:_ZN2cv9minMaxIdxERKNS_11_InputArrayEPdS3_PiS4_S2_
libopencv_core.so.4.2:_ZN2cv9minMaxLocERKNS_11_InputArrayEPdS3_PNS_6Point_IiEES6_S2_
libopencv_core.so.4.2:_ZN2cv9minMaxLocERKNS_9SparseMatEPdS3_PiS4_
libopencv_core.so.4.2:_ZN2cv9normalizeERKNS_11_InputArrayERKNS_17_InputOutputArrayEddiiS2_
libopencv_core.so.4.2:_ZN2cv9normalizeERKNS_9SparseMatERS0_di
libopencv_core.so.4.2:_ZN2cv9patchNaNsERKNS_17_InputOutputArrayEd
libopencv_core.so.4.2:_ZN2cv9seqRemoveEP5CvSeqi
libopencv_core.so.4.2:_ZN2cv9softfloatC1Ei
libopencv_core.so.4.2:_ZN2cv9softfloatC1Ej
libopencv_core.so.4.2:_ZN2cv9softfloatC1El
libopencv_core.so.4.2:_ZN2cv9softfloatC1Em
libopencv_core.so.4.2:_ZN2cv9softfloatC2Ei
libopencv_core.so.4.2:_ZN2cv9softfloatC2Ej
libopencv_core.so.4.2:_ZN2cv9softfloatC2El
libopencv_core.so.4.2:_ZN2cv9softfloatC2Em
libopencv_core.so.4.2:_ZN2cv9solvePolyERKNS_11_InputArrayERKNS_12_OutputArrayEi
libopencv_core.so.4.2:_ZN2cv9transformERKNS_11_InputArrayERKNS_12_OutputArrayES2_
libopencv_core.so.4.2:_ZN2cv9transposeERKNS_11_InputArrayERKNS_12_OutputArrayE
libopencv_core.so.4.2:_ZN2cv9useOpenVXEv
libopencv_core.so.4.2:_ZN2cvanERKNS_3MatERKNS_7Scalar_IdEE
libopencv_core.so.4.2:_ZN2cvanERKNS_3MatES2_
libopencv_core.so.4.2:_ZN2cvanERKNS_7Scalar_IdEERKNS_3MatE
libopencv_core.so.4.2:_ZN2cvcoERKNS_3MatE
libopencv_core.so.4.2:_ZN2cvdvERKNS_3MatERKNS_7MatExprE
libopencv_core.so.4.2:_ZN2cvdvERKNS_3MatES2_
libopencv_core.so.4.2:_ZN2cvdvERKNS_3MatEd
libopencv_core.so.4.2:_ZN2cvdvERKNS_7MatExprERKNS_3MatE
libopencv_core.so.4.2:_ZN2cvdvERKNS_7MatExprES2_
libopencv_core.so.4.2:_ZN2cvdvERKNS_7MatExprEd
libopencv_core.so.4.2:_ZN2cvdvEdRKNS_3MatE
libopencv_core.so.4.2:_ZN2cvdvEdRKNS_7MatExprE
libopencv_core.so.4.2:_ZN2cveoERKNS_3MatERKNS_7Scalar_IdEE
libopencv_core.so.4.2:_ZN2cveoERKNS_3MatES2_
libopencv_core.so.4.2:_ZN2cveoERKNS_7Scalar_IdEERKNS_3MatE
libopencv_core.so.4.2:_ZN2cveqERKNS_16FileNodeIteratorES2_
libopencv_core.so.4.2:_ZN2cveqERKNS_3MatES2_
libopencv_core.so.4.2:_ZN2cveqERKNS_3MatEd
libopencv_core.so.4.2:_ZN2cveqEdRKNS_3MatE
libopencv_core.so.4.2:_ZN2cvgeERKNS_3MatES2_
libopencv_core.so.4.2:_ZN2cvgeERKNS_3MatEd
libopencv_core.so.4.2:_ZN2cvgeEdRKNS_3MatE
libopencv_core.so.4.2:_ZN2cvgtERKNS_3MatES2_
libopencv_core.so.4.2:_ZN2cvgtERKNS_3MatEd
libopencv_core.so.4.2:_ZN2cvgtEdRKNS_3MatE
libopencv_core.so.4.2:_ZN2cvleERKNS_3MatES2_
libopencv_core.so.4.2:_ZN2cvleERKNS_3MatEd
libopencv_core.so.4.2:_ZN2cvleEdRKNS_3MatE
libopencv_core.so.4.2:_ZN2cvlsERNS_11FileStorageERKNSt7__cxx1112basic_stringIcSt11char_traitsIcESaIcEEE
libopencv_core.so.4.2:_ZN2cvltERKNS_3MatES2_
libopencv_core.so.4.2:_ZN2cvltERKNS_3MatEd
libopencv_core.so.4.2:_ZN2cvltEdRKNS_3MatE
libopencv_core.so.4.2:_ZN2cvmiERKNS_3MatERKNS_7MatExprE
libopencv_core.so.4.2:_ZN2cvmiERKNS_3MatERKNS_7Scalar_IdEE
libopencv_core.so.4.2:_ZN2cvmiERKNS_3MatES2_
libopencv_core.so.4.2:_ZN2cvmiERKNS_7MatExprERKNS_3MatE
libopencv_core.so.4.2:_ZN2cvmiERKNS_7MatExprERKNS_7Scalar_IdEE
libopencv_core.so.4.2:_ZN2cvmiERKNS_7MatExprES2_
libopencv_core.so.4.2:_ZN2cvmiERKNS_7Scalar_IdEERKNS_3MatE
libopencv_core.so.4.2:_ZN2cvmiERKNS_7Scalar_IdEERKNS_7MatExprE
libopencv_core.so.4.2:_ZN2cvmlERKNS_3MatERKNS_7MatExprE
libopencv_core.so.4.2:_ZN2cvmlERKNS_3MatES2_
libopencv_core.so.4.2:_ZN2cvmlERKNS_3MatEd
libopencv_core.so.4.2:_ZN2cvmlERKNS_7MatExprERKNS_3MatE
libopencv_core.so.4.2:_ZN2cvmlERKNS_7MatExprES2_
libopencv_core.so.4.2:_ZN2cvmlERKNS_7MatExprEd
libopencv_core.so.4.2:_ZN2cvmlEdRKNS_3MatE
libopencv_core.so.4.2:_ZN2cvmlEdRKNS_7MatExprE
libopencv_core.so.4.2:_ZN2cvneERKNS_16FileNodeIteratorES2_
libopencv_core.so.4.2:_ZN2cvneERKNS_3MatES2_
libopencv_core.so.4.2:_ZN2cvneERKNS_3MatEd
libopencv_core.so.4.2:_ZN2cvneEdRKNS_3MatE
libopencv_core.so.4.2:_ZN2cvngERKNS_3MatE
libopencv_core.so.4.2:_ZN2cvngERKNS_7MatExprE
libopencv_core.so.4.2:_ZN2cvorERKNS_3MatERKNS_7Scalar_IdEE
libopencv_core.so.4.2:_ZN2cvorERKNS_3MatES2_
libopencv_core.so.4.2:_ZN2cvorERKNS_7Scalar_IdEERKNS_3MatE
libopencv_core.so.4.2:_ZN2cvplERKNS_3MatERKNS_7MatExprE
libopencv_core.so.4.2:_ZN2cvplERKNS_3MatERKNS_7Scalar_IdEE
libopencv_core.so.4.2:_ZN2cvplERKNS_3MatES2_
libopencv_core.so.4.2:_ZN2cvplERKNS_7MatExprERKNS_3MatE
libopencv_core.so.4.2:_ZN2cvplERKNS_7MatExprERKNS_7Scalar_IdEE
libopencv_core.so.4.2:_ZN2cvplERKNS_7MatExprES2_
libopencv_core.so.4.2:_ZN2cvplERKNS_7Scalar_IdEERKNS_3MatE
libopencv_core.so.4.2:_ZN2cvplERKNS_7Scalar_IdEERKNS_7MatExprE
libopencv_core.so.4.2:_ZNK11CvSparseMat15copyToSparseMatERN2cv9SparseMatE
libopencv_core.so.4.2:_ZNK2cv10AsyncArray3getERKNS_12_OutputArrayE
libopencv_core.so.4.2:_ZNK2cv10AsyncArray3getERKNS_12_OutputArrayEl
libopencv_core.so.4.2:_ZNK2cv10AsyncArray5validEv
libopencv_core.so.4.2:_ZNK2cv10AsyncArray8wait_forEl
libopencv_core.so.4.2:_ZNK2cv10softdoublecvNS_9softfloatEEv
libopencv_core.so.4.2:_ZNK2cv10softdoubledvERKS0_
libopencv_core.so.4.2:_ZNK2cv10softdoubleeqERKS0_
libopencv_core.so.4.2:_ZNK2cv10softdoublegeERKS0_
libopencv_core.so.4.2:_ZNK2cv10softdoublegtERKS0_
libopencv_core.so.4.2:_ZNK2cv10softdoubleleERKS0_
libopencv_core.so.4.2:_ZNK2cv10softdoubleltERKS0_
libopencv_core.so.4.2:_ZNK2cv10softdoublemiERKS0_
libopencv_core.so.4.2:_ZNK2cv10softdoublemlERKS0_
libopencv_core.so.4.2:_ZNK2cv10softdoubleneERKS0_
libopencv_core.so.4.2:_ZNK2cv10softdoubleplERKS0_
libopencv_core.so.4.2:_ZNK2cv10softdoublermERKS0_
libopencv_core.so.4.2:_ZNK2cv11FileStorage20getFirstTopLevelNodeEv
libopencv_core.so.4.2:_ZNK2cv11FileStorage4rootEi
libopencv_core.so.4.2:_ZNK2cv11FileStorage8isOpenedEv
libopencv_core.so.4.2:_ZNK2cv11FileStorage9getFormatEv
libopencv_core.so.4.2:_ZNK2cv11FileStorageixEPKc
libopencv_core.so.4.2:_ZNK2cv11FileStorageixERKNSt7__cxx1112basic_stringIcSt11char_traitsIcESaIcEEE
libopencv_core.so.4.2:_ZNK2cv11RotatedRect12boundingRectEv
libopencv_core.so.4.2:_ZNK2cv11RotatedRect14boundingRect2fEv
libopencv_core.so.4.2:_ZNK2cv11RotatedRect6pointsEPNS_6Point_IfEE
libopencv_core.so.4.2:_ZNK2cv11_InputArray11isSubmatrixEi
libopencv_core.so.4.2:_ZNK2cv11_InputArray12getMatVectorERSt6vectorINS_3MatESaIS2_EE
libopencv_core.so.4.2:_ZNK2cv11_InputArray12getOGlBufferEv
libopencv_core.so.4.2:_ZNK2cv11_InputArray12isContinuousEi
libopencv_core.so.4.2:_ZNK2cv11_InputArray13getUMatVectorERSt6vectorINS_4UMatESaIS2_EE
libopencv_core.so.4.2:_ZNK2cv11_InputArray15getGpuMatVectorERSt6vectorINS_4cuda6GpuMatESaIS3_EE
libopencv_core.so.4.2:_ZNK2cv11_InputArray4colsEi
libopencv_core.so.4.2:_ZNK2cv11_InputArray4dimsEi
libopencv_core.so.4.2:_ZNK2cv11_InputArray4kindEv
libopencv_core.so.4.2:_ZNK2cv11_InputArray4rowsEi
libopencv_core.so.4.2:_ZNK2cv11_InputArray4sizeEi
libopencv_core.so.4.2:_ZNK2cv11_InputArray4stepEi
libopencv_core.so.4.2:_ZNK2cv11_InputArray4typeEi
libopencv_core.so.4.2:_ZNK2cv11_InputArray5depthEi
libopencv_core.so.4.2:_ZNK2cv11_InputArray5emptyEv
libopencv_core.so.4.2:_ZNK2cv11_InputArray5totalEi
libopencv_core.so.4.2:_ZNK2cv11_InputArray6copyToERKNS_12_OutputArrayE
libopencv_core.so.4.2:_ZNK2cv11_InputArray6copyToERKNS_12_OutputArrayERKS0_
libopencv_core.so.4.2:_ZNK2cv11_InputArray6offsetEi
libopencv_core.so.4.2:_ZNK2cv11_InputArray6sizendEPii
libopencv_core.so.4.2:_ZNK2cv11_InputArray7getMat_Ei
libopencv_core.so.4.2:_ZNK2cv11_InputArray7getUMatEi
libopencv_core.so.4.2:_ZNK2cv11_InputArray8channelsEi
libopencv_core.so.4.2:_ZNK2cv11_InputArray8sameSizeERKS0_
libopencv_core.so.4.2:_ZNK2cv11_InputArray9getGpuMatEv
libopencv_core.so.4.2:_ZNK2cv12MatAllocator23getBufferPoolControllerEPKc
libopencv_core.so.4.2:_ZNK2cv12MatAllocator3mapEPNS_8UMatDataENS_10AccessFlagE
libopencv_core.so.4.2:_ZNK2cv12MatAllocator4copyEPNS_8UMatDataES2_iPKmS4_S4_S4_S4_b
libopencv_core.so.4.2:_ZNK2cv12MatAllocator5unmapEPNS_8UMatDataE
libopencv_core.so.4.2:_ZNK2cv12MatAllocator6uploadEPNS_8UMatDataEPKviPKmS6_S6_S6_
libopencv_core.so.4.2:_ZNK2cv12MatAllocator8downloadEPNS_8UMatDataEPviPKmS5_S5_S5_
libopencv_core.so.4.2:_ZNK2cv12_OutputArray10getUMatRefEi
libopencv_core.so.4.2:_ZNK2cv12_OutputArray12getGpuMatRefEv
libopencv_core.so.4.2:_ZNK2cv12_OutputArray13getHostMemRefEv
libopencv_core.so.4.2:_ZNK2cv12_OutputArray14createSameSizeERKNS_11_InputArrayEi
libopencv_core.so.4.2:_ZNK2cv12_OutputArray15getGpuMatVecRefEv
libopencv_core.so.4.2:_ZNK2cv12_OutputArray15getOGlBufferRefEv
libopencv_core.so.4.2:_ZNK2cv12_OutputArray4moveERNS_3MatE
libopencv_core.so.4.2:_ZNK2cv12_OutputArray4moveERNS_4UMatE
libopencv_core.so.4.2:_ZNK2cv12_OutputArray5clearEv
libopencv_core.so.4.2:_ZNK2cv12_OutputArray5setToERKNS_11_InputArrayES3_
libopencv_core.so.4.2:_ZNK2cv12_OutputArray6assignERKNS_3MatE
libopencv_core.so.4.2:_ZNK2cv12_OutputArray6assignERKNS_4UMatE
libopencv_core.so.4.2:_ZNK2cv12_OutputArray6assignERKSt6vectorINS_3MatESaIS2_EE
libopencv_core.so.4.2:_ZNK2cv12_OutputArray6assignERKSt6vectorINS_4UMatESaIS2_EE
libopencv_core.so.4.2:_ZNK2cv12_OutputArray6createENS_5Size_IiEEiibNS0_9DepthMaskE
libopencv_core.so.4.2:_ZNK2cv12_OutputArray6createEiPKiiibNS0_9DepthMaskE
libopencv_core.so.4.2:_ZNK2cv12_OutputArray6createEiiiibNS0_9DepthMaskE
libopencv_core.so.4.2:_ZNK2cv12_OutputArray6neededEv
libopencv_core.so.4.2:_ZNK2cv12_OutputArray7releaseEv
libopencv_core.so.4.2:_ZNK2cv12_OutputArray9fixedSizeEv
libopencv_core.so.4.2:_ZNK2cv12_OutputArray9fixedTypeEv
libopencv_core.so.4.2:_ZNK2cv12_OutputArray9getMatRefEi
libopencv_core.so.4.2:_ZNK2cv14DefaultDeleterI11CvSparseMatEclEPS1_
libopencv_core.so.4.2:_ZNK2cv14DefaultDeleterI12CvMemStorageEclEPS1_
libopencv_core.so.4.2:_ZNK2cv14DefaultDeleterI5CvMatEclEPS1_
libopencv_core.so.4.2:_ZNK2cv14DefaultDeleterI7CvMatNDEclEPS1_
libopencv_core.so.4.2:_ZNK2cv14DefaultDeleterI9_IplImageEclEPS1_
libopencv_core.so.4.2:_ZNK2cv16FileNodeIterator7equalToERKS0_
libopencv_core.so.4.2:_ZNK2cv16FileNodeIterator9remainingEv
libopencv_core.so.4.2:_ZNK2cv16FileNodeIteratordeEv
libopencv_core.so.4.2:_ZNK2cv16MatConstIterator3posEPi
libopencv_core.so.4.2:_ZNK2cv16MatConstIterator3posEv
libopencv_core.so.4.2:_ZNK2cv16MatConstIterator4lposEv
libopencv_core.so.4.2:_ZNK2cv16MinProblemSolver8Function14getGradientEpsEv
libopencv_core.so.4.2:_ZNK2cv16TLSDataContainer10gatherDataERSt6vectorIPvSaIS2_EE
libopencv_core.so.4.2:_ZNK2cv16TLSDataContainer7getDataEv
libopencv_core.so.4.2:_ZNK2cv17CommandLineParser10getByIndexEibNS_5ParamEPv
libopencv_core.so.4.2:_ZNK2cv17CommandLineParser11printErrorsEv
libopencv_core.so.4.2:_ZNK2cv17CommandLineParser12printMessageEv
libopencv_core.so.4.2:_ZNK2cv17CommandLineParser20getPathToApplicationB5cxx11Ev
libopencv_core.so.4.2:_ZNK2cv17CommandLineParser3hasERKNSt7__cxx1112basic_stringIcSt11char_traitsIcESaIcEEE
libopencv_core.so.4.2:_ZNK2cv17CommandLineParser4Impl12split_stringERKNSt7__cxx1112basic_stringIcSt11char_traitsIcESaIcEEEcb
libopencv_core.so.4.2:_ZNK2cv17CommandLineParser4Impl18split_range_stringERKNSt7__cxx1112basic_stringIcSt11char_traitsIcESaIcEEEcc
libopencv_core.so.4.2:_ZNK2cv17CommandLineParser5checkEv
libopencv_core.so.4.2:_ZNK2cv17CommandLineParser9getByNameERKNSt7__cxx1112basic_stringIcSt11char_traitsIcESaIcEEEbNS_5ParamEPv
libopencv_core.so.4.2:_ZNK2cv3LDA4saveERKNSt7__cxx1112basic_stringIcSt11char_traitsIcESaIcEEE
libopencv_core.so.4.2:_ZNK2cv3LDA4saveERNS_11FileStorageE
libopencv_core.so.4.2:_ZNK2cv3Mat11checkVectorEiib
libopencv_core.so.4.2:_ZNK2cv3Mat1tEv
libopencv_core.so.4.2:_ZNK2cv3Mat3dotERKNS_11_InputArrayE
libopencv_core.so.4.2:_ZNK2cv3Mat3invEi
libopencv_core.so.4.2:_ZNK2cv3Mat3mulERKNS_11_InputArrayEd
libopencv_core.so.4.2:_ZNK2cv3Mat4diagEi
libopencv_core.so.4.2:_ZNK2cv3Mat5crossERKNS_11_InputArrayE
libopencv_core.so.4.2:_ZNK2cv3Mat6copyToERKNS_12_OutputArrayE
libopencv_core.so.4.2:_ZNK2cv3Mat6copyToERKNS_12_OutputArrayERKNS_11_InputArrayE
libopencv_core.so.4.2:_ZNK2cv3Mat7getUMatENS_10AccessFlagENS_14UMatUsageFlagsE
libopencv_core.so.4.2:_ZNK2cv3Mat7reshapeEiRKSt6vectorIiSaIiEE
libopencv_core.so.4.2:_ZNK2cv3Mat7reshapeEii
libopencv_core.so.4.2:_ZNK2cv3Mat7reshapeEiiPKi
libopencv_core.so.4.2:_ZNK2cv3Mat9convertToERKNS_12_OutputArrayEidd
libopencv_core.so.4.2:_ZNK2cv3Mat9locateROIERNS_5Size_IiEERNS_6Point_IiEE
libopencv_core.so.4.2:_ZNK2cv3PCA11backProjectERKNS_11_InputArrayE
libopencv_core.so.4.2:_ZNK2cv3PCA11backProjectERKNS_11_InputArrayERKNS_12_OutputArrayE
libopencv_core.so.4.2:_ZNK2cv3PCA5writeERNS_11FileStorageE
libopencv_core.so.4.2:_ZNK2cv3PCA7projectERKNS_11_InputArrayE
libopencv_core.so.4.2:_ZNK2cv3PCA7projectERKNS_11_InputArrayERKNS_12_OutputArrayE
libopencv_core.so.4.2:_ZNK2cv3SVD9backSubstERKNS_11_InputArrayERKNS_12_OutputArrayE
libopencv_core.so.4.2:_ZNK2cv3ocl12PlatformInfo12deviceNumberEv
libopencv_core.so.4.2:_ZNK2cv3ocl12PlatformInfo4nameB5cxx11Ev
libopencv_core.so.4.2:_ZNK2cv3ocl12PlatformInfo6vendorB5cxx11Ev
libopencv_core.so.4.2:_ZNK2cv3ocl12PlatformInfo7versionB5cxx11Ev
libopencv_core.so.4.2:_ZNK2cv3ocl12PlatformInfo9getDeviceERNS0_6DeviceEi
libopencv_core.so.4.2:_ZNK2cv3ocl13ProgramSource4hashEv
libopencv_core.so.4.2:_ZNK2cv3ocl13ProgramSource6sourceB5cxx11Ev
libopencv_core.so.4.2:_ZNK2cv3ocl5Queue17getProfilingQueueEv
libopencv_core.so.4.2:_ZNK2cv3ocl5Queue3ptrEv
libopencv_core.so.4.2:_ZNK2cv3ocl5Timer10durationNSEv
libopencv_core.so.4.2:_ZNK2cv3ocl6Device10extensionsB5cxx11Ev
libopencv_core.so.4.2:_ZNK2cv3ocl6Device10vendorNameB5cxx11Ev
libopencv_core.so.4.2:_ZNK2cv3ocl6Device11addressBitsEv
libopencv_core.so.4.2:_ZNK2cv3ocl6Device11maxSamplersEv
libopencv_core.so.4.2:_ZNK2cv3ocl6Device12endianLittleEv
libopencv_core.so.4.2:_ZNK2cv3ocl6Device12halfFPConfigEv
libopencv_core.so.4.2:_ZNK2cv3ocl6Device12imageSupportEv
libopencv_core.so.4.2:_ZNK2cv3ocl6Device12localMemSizeEv
libopencv_core.so.4.2:_ZNK2cv3ocl6Device12localMemTypeEv
libopencv_core.so.4.2:_ZNK2cv3ocl6Device13OpenCLVersionB5cxx11Ev
libopencv_core.so.4.2:_ZNK2cv3ocl6Device13driverVersionB5cxx11Ev
libopencv_core.so.4.2:_ZNK2cv3ocl6Device13globalMemSizeEv
libopencv_core.so.4.2:_ZNK2cv3ocl6Device14doubleFPConfigEv
libopencv_core.so.4.2:_ZNK2cv3ocl6Device14singleFPConfigEv
libopencv_core.so.4.2:_ZNK2cv3ocl6Device15image2DMaxWidthEv
libopencv_core.so.4.2:_ZNK2cv3ocl6Device15image3DMaxDepthEv
libopencv_core.so.4.2:_ZNK2cv3ocl6Device15image3DMaxWidthEv
libopencv_core.so.4.2:_ZNK2cv3ocl6Device15linkerAvailableEv
libopencv_core.so.4.2:_ZNK2cv3ocl6Device15maxComputeUnitsEv
libopencv_core.so.4.2:_ZNK2cv3ocl6Device15maxConstantArgsEv
libopencv_core.so.4.2:_ZNK2cv3ocl6Device15maxMemAllocSizeEv
libopencv_core.so.4.2:_ZNK2cv3ocl6Device15maxWorkItemDimsEv
libopencv_core.so.4.2:_ZNK2cv3ocl6Device16OpenCL_C_VersionB5cxx11Ev
libopencv_core.so.4.2:_ZNK2cv3ocl6Device16image2DMaxHeightEv
libopencv_core.so.4.2:_ZNK2cv3ocl6Device16image3DMaxHeightEv
libopencv_core.so.4.2:_ZNK2cv3ocl6Device16maxParameterSizeEv
libopencv_core.so.4.2:_ZNK2cv3ocl6Device16maxReadImageArgsEv
libopencv_core.so.4.2:_ZNK2cv3ocl6Device16maxWorkGroupSizeEv
libopencv_core.so.4.2:_ZNK2cv3ocl6Device16maxWorkItemSizesEPm
libopencv_core.so.4.2:_ZNK2cv3ocl6Device16memBaseAddrAlignEv
libopencv_core.so.4.2:_ZNK2cv3ocl6Device16printfBufferSizeEv
libopencv_core.so.4.2:_ZNK2cv3ocl6Device17compilerAvailableEv
libopencv_core.so.4.2:_ZNK2cv3ocl6Device17hostUnifiedMemoryEv
libopencv_core.so.4.2:_ZNK2cv3ocl6Device17imageMaxArraySizeEv
libopencv_core.so.4.2:_ZNK2cv3ocl6Device17maxClockFrequencyEv
libopencv_core.so.4.2:_ZNK2cv3ocl6Device17maxWriteImageArgsEv
libopencv_core.so.4.2:_ZNK2cv3ocl6Device18deviceVersionMajorEv
libopencv_core.so.4.2:_ZNK2cv3ocl6Device18deviceVersionMinorEv
libopencv_core.so.4.2:_ZNK2cv3ocl6Device18globalMemCacheSizeEv
libopencv_core.so.4.2:_ZNK2cv3ocl6Device18globalMemCacheTypeEv
libopencv_core.so.4.2:_ZNK2cv3ocl6Device18imageMaxBufferSizeEv
libopencv_core.so.4.2:_ZNK2cv3ocl6Device19imagePitchAlignmentEv
libopencv_core.so.4.2:_ZNK2cv3ocl6Device20isExtensionSupportedERKNSt7__cxx1112basic_stringIcSt11char_traitsIcESaIcEEE
libopencv_core.so.4.2:_ZNK2cv3ocl6Device20nativeVectorWidthIntEv
libopencv_core.so.4.2:_ZNK2cv3ocl6Device21executionCapabilitiesEv
libopencv_core.so.4.2:_ZNK2cv3ocl6Device21intelSubgroupsSupportEv
libopencv_core.so.4.2:_ZNK2cv3ocl6Device21maxConstantBufferSizeEv
libopencv_core.so.4.2:_ZNK2cv3ocl6Device21nativeVectorWidthCharEv
libopencv_core.so.4.2:_ZNK2cv3ocl6Device21nativeVectorWidthHalfEv
libopencv_core.so.4.2:_ZNK2cv3ocl6Device21nativeVectorWidthLongEv
libopencv_core.so.4.2:_ZNK2cv3ocl6Device22errorCorrectionSupportEv
libopencv_core.so.4.2:_ZNK2cv3ocl6Device22globalMemCacheLineSizeEv
libopencv_core.so.4.2:_ZNK2cv3ocl6Device22imageFromBufferSupportEv
libopencv_core.so.4.2:_ZNK2cv3ocl6Device22nativeVectorWidthFloatEv
libopencv_core.so.4.2:_ZNK2cv3ocl6Device22nativeVectorWidthShortEv
libopencv_core.so.4.2:_ZNK2cv3ocl6Device23nativeVectorWidthDoubleEv
libopencv_core.so.4.2:_ZNK2cv3ocl6Device23preferredVectorWidthIntEv
libopencv_core.so.4.2:_ZNK2cv3ocl6Device24preferredVectorWidthCharEv
libopencv_core.so.4.2:_ZNK2cv3ocl6Device24preferredVectorWidthHalfEv
libopencv_core.so.4.2:_ZNK2cv3ocl6Device24preferredVectorWidthLongEv
libopencv_core.so.4.2:_ZNK2cv3ocl6Device24profilingTimerResolutionEv
libopencv_core.so.4.2:_ZNK2cv3ocl6Device25imageBaseAddressAlignmentEv
libopencv_core.so.4.2:_ZNK2cv3ocl6Device25preferredVectorWidthFloatEv
libopencv_core.so.4.2:_ZNK2cv3ocl6Device25preferredVectorWidthShortEv
libopencv_core.so.4.2:_ZNK2cv3ocl6Device26preferredVectorWidthDoubleEv
libopencv_core.so.4.2:_ZNK2cv3ocl6Device3ptrEv
libopencv_core.so.4.2:_ZNK2cv3ocl6Device4nameB5cxx11Ev
libopencv_core.so.4.2:_ZNK2cv3ocl6Device4typeEv
libopencv_core.so.4.2:_ZNK2cv3ocl6Device7versionB5cxx11Ev
libopencv_core.so.4.2:_ZNK2cv3ocl6Device8vendorIDEv
libopencv_core.so.4.2:_ZNK2cv3ocl6Device9availableEv
libopencv_core.so.4.2:_ZNK2cv3ocl6Kernel12localMemSizeEv
libopencv_core.so.4.2:_ZNK2cv3ocl6Kernel13workGroupSizeEv
libopencv_core.so.4.2:_ZNK2cv3ocl6Kernel20compileWorkGroupSizeEPm
libopencv_core.so.4.2:_ZNK2cv3ocl6Kernel29preferedWorkGroupSizeMultipleEv
libopencv_core.so.4.2:_ZNK2cv3ocl6Kernel3ptrEv
libopencv_core.so.4.2:_ZNK2cv3ocl6Kernel5emptyEv
libopencv_core.so.4.2:_ZNK2cv3ocl7Context3ptrEv
libopencv_core.so.4.2:_ZNK2cv3ocl7Context6deviceEm
libopencv_core.so.4.2:_ZNK2cv3ocl7Context6useSVMEv
libopencv_core.so.4.2:_ZNK2cv3ocl7Context8ndevicesEv
libopencv_core.so.4.2:_ZNK2cv3ocl7Image2D3ptrEv
libopencv_core.so.4.2:_ZNK2cv3ocl7Program3ptrEv
libopencv_core.so.4.2:_ZNK2cv3ocl7Program5writeERNSt7__cxx1112basic_stringIcSt11char_traitsIcESaIcEEE
libopencv_core.so.4.2:_ZNK2cv3ocl7Program6sourceEv
libopencv_core.so.4.2:_ZNK2cv3ocl7Program9getBinaryERSt6vectorIcSaIcEE
libopencv_core.so.4.2:_ZNK2cv3ocl7Program9getPrefixB5cxx11Ev
libopencv_core.so.4.2:_ZNK2cv3ocl8Platform3ptrEv
libopencv_core.so.4.2:_ZNK2cv3ocl8internal12ProgramEntrycvRNS0_13ProgramSourceEEv
libopencv_core.so.4.2:_ZNK2cv3ogl6Arrays4bindEv
libopencv_core.so.4.2:_ZNK2cv3ogl6Buffer4bindENS1_6TargetE
libopencv_core.so.4.2:_ZNK2cv3ogl6Buffer5bufIdEv
libopencv_core.so.4.2:_ZNK2cv3ogl6Buffer5cloneENS1_6TargetEb
libopencv_core.so.4.2:_ZNK2cv3ogl6Buffer6copyToERKNS_12_OutputArrayE
libopencv_core.so.4.2:_ZNK2cv3ogl6Buffer6copyToERKNS_12_OutputArrayERNS_4cuda6StreamE
libopencv_core.so.4.2:_ZNK2cv3ogl9Texture2D4bindEv
libopencv_core.so.4.2:_ZNK2cv3ogl9Texture2D5texIdEv
libopencv_core.so.4.2:_ZNK2cv3ogl9Texture2D6copyToERKNS_12_OutputArrayEib
libopencv_core.so.4.2:_ZNK2cv4UMat11checkVectorEiib
libopencv_core.so.4.2:_ZNK2cv4UMat1tEv
libopencv_core.so.4.2:_ZNK2cv4UMat3dotERKNS_11_InputArrayE
libopencv_core.so.4.2:_ZNK2cv4UMat3invEi
libopencv_core.so.4.2:_ZNK2cv4UMat3mulERKNS_11_InputArrayEd
libopencv_core.so.4.2:_ZNK2cv4UMat4diagEi
libopencv_core.so.4.2:_ZNK2cv4UMat6copyToERKNS_12_OutputArrayE
libopencv_core.so.4.2:_ZNK2cv4UMat6copyToERKNS_12_OutputArrayERKNS_11_InputArrayE
libopencv_core.so.4.2:_ZNK2cv4UMat6getMatENS_10AccessFlagE
libopencv_core.so.4.2:_ZNK2cv4UMat6handleENS_10AccessFlagE
libopencv_core.so.4.2:_ZNK2cv4UMat7reshapeEii
libopencv_core.so.4.2:_ZNK2cv4UMat7reshapeEiiPKi
libopencv_core.so.4.2:_ZNK2cv4UMat8ndoffsetEPm
libopencv_core.so.4.2:_ZNK2cv4UMat9convertToERKNS_12_OutputArrayEidd
libopencv_core.so.4.2:_ZNK2cv4UMat9locateROIERNS_5Size_IiEERNS_6Point_IiEE
libopencv_core.so.4.2:_ZNK2cv4cuda10DeviceInfo10ECCEnabledEv
libopencv_core.so.4.2:_ZNK2cv4cuda10DeviceInfo10integratedEv
libopencv_core.so.4.2:_ZNK2cv4cuda10DeviceInfo11computeModeEv
libopencv_core.so.4.2:_ZNK2cv4cuda10DeviceInfo11l2CacheSizeEv
libopencv_core.so.4.2:_ZNK2cv4cuda10DeviceInfo11maxGridSizeEv
libopencv_core.so.4.2:_ZNK2cv4cuda10DeviceInfo11pciDeviceIDEv
libopencv_core.so.4.2:_ZNK2cv4cuda10DeviceInfo11pciDomainIDEv
libopencv_core.so.4.2:_ZNK2cv4cuda10DeviceInfo11queryMemoryERmS2_
libopencv_core.so.4.2:_ZNK2cv4cuda10DeviceInfo12isCompatibleEv
libopencv_core.so.4.2:_ZNK2cv4cuda10DeviceInfo12majorVersionEv
libopencv_core.so.4.2:_ZNK2cv4cuda10DeviceInfo12maxSurface1DEv
libopencv_core.so.4.2:_ZNK2cv4cuda10DeviceInfo12maxSurface2DEv
libopencv_core.so.4.2:_ZNK2cv4cuda10DeviceInfo12maxSurface3DEv
libopencv_core.so.4.2:_ZNK2cv4cuda10DeviceInfo12maxTexture1DEv
libopencv_core.so.4.2:_ZNK2cv4cuda10DeviceInfo12maxTexture2DEv
libopencv_core.so.4.2:_ZNK2cv4cuda10DeviceInfo12maxTexture3DEv
libopencv_core.so.4.2:_ZNK2cv4cuda10DeviceInfo12minorVersionEv
libopencv_core.so.4.2:_ZNK2cv4cuda10DeviceInfo12regsPerBlockEv
libopencv_core.so.4.2:_ZNK2cv4cuda10DeviceInfo13maxThreadsDimEv
libopencv_core.so.4.2:_ZNK2cv4cuda10DeviceInfo13totalConstMemEv
libopencv_core.so.4.2:_ZNK2cv4cuda10DeviceInfo14memoryBusWidthEv
libopencv_core.so.4.2:_ZNK2cv4cuda10DeviceInfo14totalGlobalMemEv
libopencv_core.so.4.2:_ZNK2cv4cuda10DeviceInfo15memoryClockRateEv
libopencv_core.so.4.2:_ZNK2cv4cuda10DeviceInfo16asyncEngineCountEv
libopencv_core.so.4.2:_ZNK2cv4cuda10DeviceInfo16canMapHostMemoryEv
libopencv_core.so.4.2:_ZNK2cv4cuda10DeviceInfo16surfaceAlignmentEv
libopencv_core.so.4.2:_ZNK2cv4cuda10DeviceInfo16textureAlignmentEv
libopencv_core.so.4.2:_ZNK2cv4cuda10DeviceInfo17concurrentKernelsEv
libopencv_core.so.4.2:_ZNK2cv4cuda10DeviceInfo17maxSurfaceCubemapEv
libopencv_core.so.4.2:_ZNK2cv4cuda10DeviceInfo17maxTextureCubemapEv
libopencv_core.so.4.2:_ZNK2cv4cuda10DeviceInfo17sharedMemPerBlockEv
libopencv_core.so.4.2:_ZNK2cv4cuda10DeviceInfo17unifiedAddressingEv
libopencv_core.so.4.2:_ZNK2cv4cuda10DeviceInfo18maxTexture1DLinearEv
libopencv_core.so.4.2:_ZNK2cv4cuda10DeviceInfo18maxTexture1DMipmapEv
libopencv_core.so.4.2:_ZNK2cv4cuda10DeviceInfo18maxTexture2DGatherEv
libopencv_core.so.4.2:_ZNK2cv4cuda10DeviceInfo18maxTexture2DLinearEv
libopencv_core.so.4.2:_ZNK2cv4cuda10DeviceInfo18maxTexture2DMipmapEv
libopencv_core.so.4.2:_ZNK2cv4cuda10DeviceInfo18maxThreadsPerBlockEv
libopencv_core.so.4.2:_ZNK2cv4cuda10DeviceInfo19maxSurface1DLayeredEv
libopencv_core.so.4.2:_ZNK2cv4cuda10DeviceInfo19maxSurface2DLayeredEv
libopencv_core.so.4.2:_ZNK2cv4cuda10DeviceInfo19maxTexture1DLayeredEv
libopencv_core.so.4.2:_ZNK2cv4cuda10DeviceInfo19maxTexture2DLayeredEv
libopencv_core.so.4.2:_ZNK2cv4cuda10DeviceInfo19multiProcessorCountEv
libopencv_core.so.4.2:_ZNK2cv4cuda10DeviceInfo21texturePitchAlignmentEv
libopencv_core.so.4.2:_ZNK2cv4cuda10DeviceInfo24kernelExecTimeoutEnabledEv
libopencv_core.so.4.2:_ZNK2cv4cuda10DeviceInfo24maxSurfaceCubemapLayeredEv
libopencv_core.so.4.2:_ZNK2cv4cuda10DeviceInfo24maxTextureCubemapLayeredEv
libopencv_core.so.4.2:_ZNK2cv4cuda10DeviceInfo27maxThreadsPerMultiProcessorEv
libopencv_core.so.4.2:_ZNK2cv4cuda10DeviceInfo4nameEv
libopencv_core.so.4.2:_ZNK2cv4cuda10DeviceInfo8memPitchEv
libopencv_core.so.4.2:_ZNK2cv4cuda10DeviceInfo8pciBusIDEv
libopencv_core.so.4.2:_ZNK2cv4cuda10DeviceInfo8warpSizeEv
libopencv_core.so.4.2:_ZNK2cv4cuda10DeviceInfo9clockRateEv
libopencv_core.so.4.2:_ZNK2cv4cuda10DeviceInfo9tccDriverEv
libopencv_core.so.4.2:_ZNK2cv4cuda5Event15queryIfCompleteEv
libopencv_core.so.4.2:_ZNK2cv4cuda6GpuMat6copyToERKNS_12_OutputArrayE
libopencv_core.so.4.2:_ZNK2cv4cuda6GpuMat6copyToERKNS_12_OutputArrayERKNS_11_InputArrayERNS0_6StreamE
libopencv_core.so.4.2:_ZNK2cv4cuda6GpuMat6copyToERKNS_12_OutputArrayERNS0_6StreamE
libopencv_core.so.4.2:_ZNK2cv4cuda6GpuMat7reshapeEii
libopencv_core.so.4.2:_ZNK2cv4cuda6GpuMat8downloadERKNS_12_OutputArrayE
libopencv_core.so.4.2:_ZNK2cv4cuda6GpuMat8downloadERKNS_12_OutputArrayERNS0_6StreamE
libopencv_core.so.4.2:_ZNK2cv4cuda6GpuMat9convertToERKNS_12_OutputArrayEiRNS0_6StreamE
libopencv_core.so.4.2:_ZNK2cv4cuda6GpuMat9convertToERKNS_12_OutputArrayEiddRNS0_6StreamE
libopencv_core.so.4.2:_ZNK2cv4cuda6GpuMat9locateROIERNS_5Size_IiEERNS_6Point_IiEE
libopencv_core.so.4.2:_ZNK2cv4cuda6Stream15queryIfCompleteEv
libopencv_core.so.4.2:_ZNK2cv4cuda6StreamcvMS1_KFvvEEv
libopencv_core.so.4.2:_ZNK2cv4cuda7HostMem18createGpuMatHeaderEv
libopencv_core.so.4.2:_ZNK2cv4cuda7HostMem7reshapeEii
libopencv_core.so.4.2:_ZNK2cv5MatOp11augAssignOrERKNS_7MatExprERNS_3MatE
libopencv_core.so.4.2:_ZNK2cv5MatOp11elementWiseERKNS_7MatExprE
libopencv_core.so.4.2:_ZNK2cv5MatOp12augAssignAddERKNS_7MatExprERNS_3MatE
libopencv_core.so.4.2:_ZNK2cv5MatOp12augAssignAndERKNS_7MatExprERNS_3MatE
libopencv_core.so.4.2:_ZNK2cv5MatOp12augAssignXorERKNS_7MatExprERNS_3MatE
libopencv_core.so.4.2:_ZNK2cv5MatOp15augAssignDivideERKNS_7MatExprERNS_3MatE
libopencv_core.so.4.2:_ZNK2cv5MatOp17augAssignMultiplyERKNS_7MatExprERNS_3MatE
libopencv_core.so.4.2:_ZNK2cv5MatOp17augAssignSubtractERKNS_7MatExprERNS_3MatE
libopencv_core.so.4.2:_ZNK2cv5MatOp3absERKNS_7MatExprERS1_
libopencv_core.so.4.2:_ZNK2cv5MatOp3addERKNS_7MatExprERKNS_7Scalar_IdEERS1_
libopencv_core.so.4.2:_ZNK2cv5MatOp3addERKNS_7MatExprES3_RS1_
libopencv_core.so.4.2:_ZNK2cv5MatOp3roiERKNS_7MatExprERKNS_5RangeES6_RS1_
libopencv_core.so.4.2:_ZNK2cv5MatOp4diagERKNS_7MatExprEiRS1_
libopencv_core.so.4.2:_ZNK2cv5MatOp4sizeERKNS_7MatExprE
libopencv_core.so.4.2:_ZNK2cv5MatOp4typeERKNS_7MatExprE
libopencv_core.so.4.2:_ZNK2cv5MatOp6divideERKNS_7MatExprES3_RS1_d
libopencv_core.so.4.2:_ZNK2cv5MatOp6divideEdRKNS_7MatExprERS1_
libopencv_core.so.4.2:_ZNK2cv5MatOp6invertERKNS_7MatExprEiRS1_
libopencv_core.so.4.2:_ZNK2cv5MatOp6matmulERKNS_7MatExprES3_RS1_
libopencv_core.so.4.2:_ZNK2cv5MatOp8multiplyERKNS_7MatExprES3_RS1_d
libopencv_core.so.4.2:_ZNK2cv5MatOp8multiplyERKNS_7MatExprEdRS1_
libopencv_core.so.4.2:_ZNK2cv5MatOp8subtractERKNS_7MatExprES3_RS1_
libopencv_core.so.4.2:_ZNK2cv5MatOp8subtractERKNS_7Scalar_IdEERKNS_7MatExprERS5_
libopencv_core.so.4.2:_ZNK2cv5MatOp9transposeERKNS_7MatExprERS1_
libopencv_core.so.4.2:_ZNK2cv7HammingclEPKhS2_i
libopencv_core.so.4.2:_ZNK2cv7MatExpr1tEv
libopencv_core.so.4.2:_ZNK2cv7MatExpr3colEi
libopencv_core.so.4.2:_ZNK2cv7MatExpr3dotERKNS_3MatE
libopencv_core.so.4.2:_ZNK2cv7MatExpr3invEi
libopencv_core.so.4.2:_ZNK2cv7MatExpr3mulERKNS_3MatEd
libopencv_core.so.4.2:_ZNK2cv7MatExpr3mulERKS0_d
libopencv_core.so.4.2:_ZNK2cv7MatExpr3rowEi
libopencv_core.so.4.2:_ZNK2cv7MatExpr4diagEi
libopencv_core.so.4.2:_ZNK2cv7MatExpr4sizeEv
libopencv_core.so.4.2:_ZNK2cv7MatExpr4typeEv
libopencv_core.so.4.2:_ZNK2cv7MatExpr5crossERKNS_3MatE
libopencv_core.so.4.2:_ZNK2cv7MatExprclERKNS_5RangeES3_
libopencv_core.so.4.2:_ZNK2cv7MatExprclERKNS_5Rect_IiEE
libopencv_core.so.4.2:_ZNK2cv8FileNode3endEv
libopencv_core.so.4.2:_ZNK2cv8FileNode3matEv
libopencv_core.so.4.2:_ZNK2cv8FileNode3ptrEv
libopencv_core.so.4.2:_ZNK2cv8FileNode4keysB5cxx11Ev
libopencv_core.so.4.2:_ZNK2cv8FileNode4nameB5cxx11Ev
libopencv_core.so.4.2:_ZNK2cv8FileNode4realEv
libopencv_core.so.4.2:_ZNK2cv8FileNode4sizeEv
libopencv_core.so.4.2:_ZNK2cv8FileNode4typeEv
libopencv_core.so.4.2:_ZNK2cv8FileNode5beginEv
libopencv_core.so.4.2:_ZNK2cv8FileNode5emptyEv
libopencv_core.so.4.2:_ZNK2cv8FileNode5isIntEv
libopencv_core.so.4.2:_ZNK2cv8FileNode5isMapEv
libopencv_core.so.4.2:_ZNK2cv8FileNode5isSeqEv
libopencv_core.so.4.2:_ZNK2cv8FileNode6isNoneEv
libopencv_core.so.4.2:_ZNK2cv8FileNode6isRealEv
libopencv_core.so.4.2:_ZNK2cv8FileNode6stringB5cxx11Ev
libopencv_core.so.4.2:_ZNK2cv8FileNode7isNamedEv
libopencv_core.so.4.2:_ZNK2cv8FileNode7rawSizeEv
libopencv_core.so.4.2:_ZNK2cv8FileNode7readRawERKNSt7__cxx1112basic_stringIcSt11char_traitsIcESaIcEEEPvm
libopencv_core.so.4.2:_ZNK2cv8FileNode8isStringEv
libopencv_core.so.4.2:_ZNK2cv8FileNodecvdEv
libopencv_core.so.4.2:_ZNK2cv8FileNodecvfEv
libopencv_core.so.4.2:_ZNK2cv8FileNodecviEv
libopencv_core.so.4.2:_ZNK2cv8FileNodeixEPKc
libopencv_core.so.4.2:_ZNK2cv8FileNodeixERKNSt7__cxx1112basic_stringIcSt11char_traitsIcESaIcEEE
libopencv_core.so.4.2:_ZNK2cv8FileNodeixEi
libopencv_core.so.4.2:_ZNK2cv8KeyPoint4hashEv
libopencv_core.so.4.2:_ZNK2cv9Algorithm11writeFormatERNS_11FileStorageE
libopencv_core.so.4.2:_ZNK2cv9Algorithm14getDefaultNameB5cxx11Ev
libopencv_core.so.4.2:_ZNK2cv9Algorithm4saveERKNSt7__cxx1112basic_stringIcSt11char_traitsIcESaIcEEE
libopencv_core.so.4.2:_ZNK2cv9Algorithm5writeERKNS_3PtrINS_11FileStorageEEERKNSt7__cxx1112basic_stringIcSt11char_traitsIcESaIcEEE
libopencv_core.so.4.2:_ZNK2cv9Exception4whatEv
libopencv_core.so.4.2:_ZNK2cv9SparseMat6copyToERNS_3MatE
libopencv_core.so.4.2:_ZNK2cv9SparseMat6copyToERS0_
libopencv_core.so.4.2:_ZNK2cv9SparseMat9convertToERNS_3MatEidd
libopencv_core.so.4.2:_ZNK2cv9SparseMat9convertToERS0_id
libopencv_core.so.4.2:_ZNK2cv9softfloatcvNS_10softdoubleEEv
libopencv_core.so.4.2:_ZNK2cv9softfloatdvERKS0_
libopencv_core.so.4.2:_ZNK2cv9softfloateqERKS0_
libopencv_core.so.4.2:_ZNK2cv9softfloatgeERKS0_
libopencv_core.so.4.2:_ZNK2cv9softfloatgtERKS0_
libopencv_core.so.4.2:_ZNK2cv9softfloatleERKS0_
libopencv_core.so.4.2:_ZNK2cv9softfloatltERKS0_
libopencv_core.so.4.2:_ZNK2cv9softfloatmiERKS0_
libopencv_core.so.4.2:_ZNK2cv9softfloatmlERKS0_
libopencv_core.so.4.2:_ZNK2cv9softfloatneERKS0_
libopencv_core.so.4.2:_ZNK2cv9softfloatplERKS0_
libopencv_core.so.4.2:_ZNK2cv9softfloatrmERKS0_
libopencv_core.so.4.2:cvAbsDiff
libopencv_core.so.4.2:cvAbsDiffS
libopencv_core.so.4.2:cvAdd
libopencv_core.so.4.2:cvAddS
libopencv_core.so.4.2:cvAddWeighted
libopencv_core.so.4.2:cvAlloc
libopencv_core.so.4.2:cvAnd
libopencv_core.so.4.2:cvAndS
libopencv_core.so.4.2:cvAvg
libopencv_core.so.4.2:cvAvgSdv
libopencv_core.so.4.2:cvBackProjectPCA
libopencv_core.so.4.2:cvCalcCovarMatrix
libopencv_core.so.4.2:cvCalcPCA
libopencv_core.so.4.2:cvCartToPolar
libopencv_core.so.4.2:cvCbrt
libopencv_core.so.4.2:cvChangeSeqBlock
libopencv_core.so.4.2:cvCheckArr
libopencv_core.so.4.2:cvCheckHardwareSupport
libopencv_core.so.4.2:cvCheckTermCriteria
libopencv_core.so.4.2:cvClearGraph
libopencv_core.so.4.2:cvClearMemStorage
libopencv_core.so.4.2:cvClearND
libopencv_core.so.4.2:cvClearSeq
libopencv_core.so.4.2:cvClearSet
libopencv_core.so.4.2:cvClone
libopencv_core.so.4.2:cvCloneGraph
libopencv_core.so.4.2:cvCloneImage
libopencv_core.so.4.2:cvCloneMat
libopencv_core.so.4.2:cvCloneMatND
libopencv_core.so.4.2:cvCloneSparseMat
libopencv_core.so.4.2:cvCmp
libopencv_core.so.4.2:cvCmpS
libopencv_core.so.4.2:cvCompleteSymm
libopencv_core.so.4.2:cvConvertScale
libopencv_core.so.4.2:cvConvertScaleAbs
libopencv_core.so.4.2:cvCopy
libopencv_core.so.4.2:cvCountNonZero
libopencv_core.so.4.2:cvCreateChildMemStorage
libopencv_core.so.4.2:cvCreateData
libopencv_core.so.4.2:cvCreateGraph
libopencv_core.so.4.2:cvCreateGraphScanner
libopencv_core.so.4.2:cvCreateImage
libopencv_core.so.4.2:cvCreateImageHeader
libopencv_core.so.4.2:cvCreateMat
libopencv_core.so.4.2:cvCreateMatHeader
libopencv_core.so.4.2:cvCreateMatND
libopencv_core.so.4.2:cvCreateMatNDHeader
libopencv_core.so.4.2:cvCreateMemStorage
libopencv_core.so.4.2:cvCreateSeq
libopencv_core.so.4.2:cvCreateSeqBlock
libopencv_core.so.4.2:cvCreateSet
libopencv_core.so.4.2:cvCreateSparseMat
libopencv_core.so.4.2:cvCrossProduct
libopencv_core.so.4.2:cvCvtSeqToArray
libopencv_core.so.4.2:cvDCT
libopencv_core.so.4.2:cvDFT
libopencv_core.so.4.2:cvDet
libopencv_core.so.4.2:cvDiv
libopencv_core.so.4.2:cvDotProduct
libopencv_core.so.4.2:cvEigenVV
libopencv_core.so.4.2:cvEndWriteSeq
libopencv_core.so.4.2:cvError
libopencv_core.so.4.2:cvErrorFromIppStatus
libopencv_core.so.4.2:cvErrorStr
libopencv_core.so.4.2:cvExp
libopencv_core.so.4.2:cvFastArctan
libopencv_core.so.4.2:cvFindGraphEdge
libopencv_core.so.4.2:cvFindGraphEdgeByPtr
libopencv_core.so.4.2:cvFlip
libopencv_core.so.4.2:cvFlushSeqWriter
libopencv_core.so.4.2:cvFree_
libopencv_core.so.4.2:cvGEMM
libopencv_core.so.4.2:cvGet1D
libopencv_core.so.4.2:cvGet2D
libopencv_core.so.4.2:cvGet3D
libopencv_core.so.4.2:cvGetCols
libopencv_core.so.4.2:cvGetDiag
libopencv_core.so.4.2:cvGetDimSize
libopencv_core.so.4.2:cvGetDims
libopencv_core.so.4.2:cvGetElemType
libopencv_core.so.4.2:cvGetErrInfo
libopencv_core.so.4.2:cvGetErrMode
libopencv_core.so.4.2:cvGetErrStatus
libopencv_core.so.4.2:cvGetImage
libopencv_core.so.4.2:cvGetImageCOI
libopencv_core.so.4.2:cvGetImageROI
libopencv_core.so.4.2:cvGetMat
libopencv_core.so.4.2:cvGetND
libopencv_core.so.4.2:cvGetNumThreads
libopencv_core.so.4.2:cvGetOptimalDFTSize
libopencv_core.so.4.2:cvGetRawData
libopencv_core.so.4.2:cvGetReal1D
libopencv_core.so.4.2:cvGetReal2D
libopencv_core.so.4.2:cvGetReal3D
libopencv_core.so.4.2:cvGetRealND
libopencv_core.so.4.2:cvGetRows
libopencv_core.so.4.2:cvGetSeqElem
libopencv_core.so.4.2:cvGetSeqReaderPos
libopencv_core.so.4.2:cvGetSize
libopencv_core.so.4.2:cvGetSubRect
libopencv_core.so.4.2:cvGetThreadNum
libopencv_core.so.4.2:cvGetTickCount
libopencv_core.so.4.2:cvGetTickFrequency
libopencv_core.so.4.2:cvGraphAddEdge
libopencv_core.so.4.2:cvGraphAddEdgeByPtr
libopencv_core.so.4.2:cvGraphAddVtx
libopencv_core.so.4.2:cvGraphRemoveEdge
libopencv_core.so.4.2:cvGraphRemoveEdgeByPtr
libopencv_core.so.4.2:cvGraphRemoveVtx
libopencv_core.so.4.2:cvGraphRemoveVtxByPtr
libopencv_core.so.4.2:cvGraphVtxDegree
libopencv_core.so.4.2:cvGraphVtxDegreeByPtr
libopencv_core.so.4.2:cvGuiBoxReport
libopencv_core.so.4.2:cvInRange
libopencv_core.so.4.2:cvInRangeS
libopencv_core.so.4.2:cvInitImageHeader
libopencv_core.so.4.2:cvInitMatHeader
libopencv_core.so.4.2:cvInitMatNDHeader
libopencv_core.so.4.2:cvInitNArrayIterator
libopencv_core.so.4.2:cvInitSparseMatIterator
libopencv_core.so.4.2:cvInitTreeNodeIterator
libopencv_core.so.4.2:cvInsertNodeIntoTree
libopencv_core.so.4.2:cvInvert
libopencv_core.so.4.2:cvKMeans2
libopencv_core.so.4.2:cvLUT
libopencv_core.so.4.2:cvLog
libopencv_core.so.4.2:cvMahalanobis
libopencv_core.so.4.2:cvMakeSeqHeaderForArray
libopencv_core.so.4.2:cvMax
libopencv_core.so.4.2:cvMaxS
libopencv_core.so.4.2:cvMemStorageAlloc
libopencv_core.so.4.2:cvMerge
libopencv_core.so.4.2:cvMin
libopencv_core.so.4.2:cvMinMaxLoc
libopencv_core.so.4.2:cvMinS
libopencv_core.so.4.2:cvMixChannels
libopencv_core.so.4.2:cvMul
libopencv_core.so.4.2:cvMulSpectrums
libopencv_core.so.4.2:cvMulTransposed
libopencv_core.so.4.2:cvNextGraphItem
libopencv_core.so.4.2:cvNextNArraySlice
libopencv_core.so.4.2:cvNextTreeNode
libopencv_core.so.4.2:cvNorm
libopencv_core.so.4.2:cvNormalize
libopencv_core.so.4.2:cvNot
libopencv_core.so.4.2:cvNulDevReport
libopencv_core.so.4.2:cvOr
libopencv_core.so.4.2:cvOrS
libopencv_core.so.4.2:cvPerspectiveTransform
libopencv_core.so.4.2:cvPolarToCart
libopencv_core.so.4.2:cvPow
libopencv_core.so.4.2:cvPrevTreeNode
libopencv_core.so.4.2:cvProjectPCA
libopencv_core.so.4.2:cvPtr1D
libopencv_core.so.4.2:cvPtr2D
libopencv_core.so.4.2:cvPtr3D
libopencv_core.so.4.2:cvPtrND
libopencv_core.so.4.2:cvRandArr
libopencv_core.so.4.2:cvRandShuffle
libopencv_core.so.4.2:cvRange
libopencv_core.so.4.2:cvRawDataToScalar
libopencv_core.so.4.2:cvRedirectError
libopencv_core.so.4.2:cvReduce
libopencv_core.so.4.2:cvRelease
libopencv_core.so.4.2:cvReleaseData
libopencv_core.so.4.2:cvReleaseGraphScanner
libopencv_core.so.4.2:cvReleaseImage
libopencv_core.so.4.2:cvReleaseImageHeader
libopencv_core.so.4.2:cvReleaseMat
libopencv_core.so.4.2:cvReleaseMemStorage
libopencv_core.so.4.2:cvReleaseSparseMat
libopencv_core.so.4.2:cvRemoveNodeFromTree
libopencv_core.so.4.2:cvRepeat
libopencv_core.so.4.2:cvResetImageROI
libopencv_core.so.4.2:cvReshape
libopencv_core.so.4.2:cvReshapeMatND
libopencv_core.so.4.2:cvRestoreMemStoragePos
libopencv_core.so.4.2:cvSVBkSb
libopencv_core.so.4.2:cvSVD
libopencv_core.so.4.2:cvSaveMemStoragePos
libopencv_core.so.4.2:cvScalarToRawData
libopencv_core.so.4.2:cvScaleAdd
libopencv_core.so.4.2:cvSeqElemIdx
libopencv_core.so.4.2:cvSeqInsert
libopencv_core.so.4.2:cvSeqInsertSlice
libopencv_core.so.4.2:cvSeqInvert
libopencv_core.so.4.2:cvSeqPartition
libopencv_core.so.4.2:cvSeqPop
libopencv_core.so.4.2:cvSeqPopFront
libopencv_core.so.4.2:cvSeqPopMulti
libopencv_core.so.4.2:cvSeqPush
libopencv_core.so.4.2:cvSeqPushFront
libopencv_core.so.4.2:cvSeqPushMulti
libopencv_core.so.4.2:cvSeqRemove
libopencv_core.so.4.2:cvSeqRemoveSlice
libopencv_core.so.4.2:cvSeqSearch
libopencv_core.so.4.2:cvSeqSlice
libopencv_core.so.4.2:cvSeqSort
libopencv_core.so.4.2:cvSet
libopencv_core.so.4.2:cvSet1D
libopencv_core.so.4.2:cvSet2D
libopencv_core.so.4.2:cvSet3D
libopencv_core.so.4.2:cvSetAdd
libopencv_core.so.4.2:cvSetData
libopencv_core.so.4.2:cvSetErrMode
libopencv_core.so.4.2:cvSetErrStatus
libopencv_core.so.4.2:cvSetIPLAllocators
libopencv_core.so.4.2:cvSetIdentity
libopencv_core.so.4.2:cvSetImageCOI
libopencv_core.so.4.2:cvSetImageROI
libopencv_core.so.4.2:cvSetND
libopencv_core.so.4.2:cvSetNumThreads
libopencv_core.so.4.2:cvSetReal1D
libopencv_core.so.4.2:cvSetReal2D
libopencv_core.so.4.2:cvSetReal3D
libopencv_core.so.4.2:cvSetRealND
libopencv_core.so.4.2:cvSetRemove
libopencv_core.so.4.2:cvSetSeqBlockSize
libopencv_core.so.4.2:cvSetSeqReaderPos
libopencv_core.so.4.2:cvSetZero
libopencv_core.so.4.2:cvSliceLength
libopencv_core.so.4.2:cvSolve
libopencv_core.so.4.2:cvSolveCubic
libopencv_core.so.4.2:cvSolvePoly
libopencv_core.so.4.2:cvSort
libopencv_core.so.4.2:cvSplit
libopencv_core.so.4.2:cvStartAppendToSeq
libopencv_core.so.4.2:cvStartReadSeq
libopencv_core.so.4.2:cvStartWriteSeq
libopencv_core.so.4.2:cvStdErrReport
libopencv_core.so.4.2:cvSub
libopencv_core.so.4.2:cvSubRS
libopencv_core.so.4.2:cvSum
libopencv_core.so.4.2:cvTrace
libopencv_core.so.4.2:cvTransform
libopencv_core.so.4.2:cvTranspose
libopencv_core.so.4.2:cvTreeToNodeSeq
libopencv_core.so.4.2:cvUseOptimized
libopencv_core.so.4.2:cvXor
libopencv_core.so.4.2:cvXorS
libopencv_dnn.so.4.2:_ZN2cv3dnn14dnn4_v2019120210BlankLayer6createERKNS1_11LayerParamsE
libopencv_dnn.so.4.2:_ZN2cv3dnn14dnn4_v2019120210ConstLayer6createERKNS1_11LayerParamsE
libopencv_dnn.so.4.2:_ZN2cv3dnn14dnn4_v2019120210PowerLayer6createERKNS1_11LayerParamsE
libopencv_dnn.so.4.2:_ZN2cv3dnn14dnn4_v2019120210ReLU6Layer6createERKNS1_11LayerParamsE
libopencv_dnn.so.4.2:_ZN2cv3dnn14dnn4_v2019120210ReorgLayer6createERKNS1_11LayerParamsE
libopencv_dnn.so.4.2:_ZN2cv3dnn14dnn4_v2019120210ScaleLayer6createERKNS1_11LayerParamsE
libopencv_dnn.so.4.2:_ZN2cv3dnn14dnn4_v2019120210ShiftLayer6createERKNS1_11LayerParamsE
libopencv_dnn.so.4.2:_ZN2cv3dnn14dnn4_v2019120210SliceLayer6createERKNS1_11LayerParamsE
libopencv_dnn.so.4.2:_ZN2cv3dnn14dnn4_v2019120210SplitLayer6createERKNS1_11LayerParamsE
libopencv_dnn.so.4.2:_ZN2cv3dnn14dnn4_v2019120210SwishLayer6createERKNS1_11LayerParamsE
libopencv_dnn.so.4.2:_ZN2cv3dnn14dnn4_v2019120211ConcatLayer6createERKNS1_11LayerParamsE
libopencv_dnn.so.4.2:_ZN2cv3dnn14dnn4_v2019120211InterpLayer6createERKNS1_11LayerParamsE
libopencv_dnn.so.4.2:_ZN2cv3dnn14dnn4_v2019120211RegionLayer6createERKNS1_11LayerParamsE
libopencv_dnn.so.4.2:_ZN2cv3dnn14dnn4_v2019120211ResizeLayer6createERKNS1_11LayerParamsE
libopencv_dnn.so.4.2:_ZN2cv3dnn14dnn4_v2019120212EltwiseLayer6createERKNS1_11LayerParamsE
libopencv_dnn.so.4.2:_ZN2cv3dnn14dnn4_v2019120212FlattenLayer6createERKNS1_11LayerParamsE
libopencv_dnn.so.4.2:_ZN2cv3dnn14dnn4_v2019120212LayerFactory13registerLayerERKNSt7__cxx1112basic_stringIcSt11char_traitsIcESaIcEEEPFNS_3PtrINS1_5LayerEEERNS1_11LayerParamsEE
libopencv_dnn.so.4.2:_ZN2cv3dnn14dnn4_v2019120212LayerFactory15unregisterLayerERKNSt7__cxx1112basic_stringIcSt11char_traitsIcESaIcEEE
libopencv_dnn.so.4.2:_ZN2cv3dnn14dnn4_v2019120212LayerFactory19createLayerInstanceERKNSt7__cxx1112basic_stringIcSt11char_traitsIcESaIcEEERNS1_11LayerParamsE
libopencv_dnn.so.4.2:_ZN2cv3dnn14dnn4_v2019120212PaddingLayer6createERKNS1_11LayerParamsE
libopencv_dnn.so.4.2:_ZN2cv3dnn14dnn4_v2019120212PermuteLayer6createERKNS1_11LayerParamsE
libopencv_dnn.so.4.2:_ZN2cv3dnn14dnn4_v2019120212PoolingLayer6createERKNS1_11LayerParamsE
libopencv_dnn.so.4.2:_ZN2cv3dnn14dnn4_v2019120212ReshapeLayer6createERKNS1_11LayerParamsE
libopencv_dnn.so.4.2:_ZN2cv3dnn14dnn4_v2019120212SigmoidLayer6createERKNS1_11LayerParamsE
libopencv_dnn.so.4.2:_ZN2cv3dnn14dnn4_v2019120212SoftmaxLayer6createERKNS1_11LayerParamsE
libopencv_dnn.so.4.2:_ZN2cv3dnn14dnn4_v2019120213PriorBoxLayer6createERKNS1_11LayerParamsE
libopencv_dnn.so.4.2:_ZN2cv3dnn14dnn4_v2019120213ProposalLayer6createERKNS1_11LayerParamsE
libopencv_dnn.so.4.2:_ZN2cv3dnn14dnn4_v2019120213blobFromImageERKNS_11_InputArrayERKNS_12_OutputArrayEdRKNS_5Size_IiEERKNS_7Scalar_IdEEbbi
libopencv_dnn.so.4.2:_ZN2cv3dnn14dnn4_v2019120213blobFromImageERKNS_11_InputArrayEdRKNS_5Size_IiEERKNS_7Scalar_IdEEbbi
libopencv_dnn.so.4.2:_ZN2cv3dnn14dnn4_v2019120213readTorchBlobERKNSt7__cxx1112basic_stringIcSt11char_traitsIcESaIcEEEb
libopencv_dnn.so.4.2:_ZN2cv3dnn14dnn4_v2019120214BatchNormLayer6createERKNS1_11LayerParamsE
libopencv_dnn.so.4.2:_ZN2cv3dnn14dnn4_v2019120214DetectionModel6detectERKNS_11_InputArrayERSt6vectorIiSaIiEERS6_IfSaIfEERS6_INS_5Rect_IiEESaISE_EEff
libopencv_dnn.so.4.2:_ZN2cv3dnn14dnn4_v2019120214DetectionModelC1ERKNS1_3NetE
libopencv_dnn.so.4.2:_ZN2cv3dnn14dnn4_v2019120214DetectionModelC1ERKNSt7__cxx1112basic_stringIcSt11char_traitsIcESaIcEEESA_
libopencv_dnn.so.4.2:_ZN2cv3dnn14dnn4_v2019120214DetectionModelC2ERKNS1_3NetE
libopencv_dnn.so.4.2:_ZN2cv3dnn14dnn4_v2019120214DetectionModelC2ERKNSt7__cxx1112basic_stringIcSt11char_traitsIcESaIcEEESA_
libopencv_dnn.so.4.2:_ZN2cv3dnn14dnn4_v2019120214KeypointsModel8estimateERKNS_11_InputArrayEf
libopencv_dnn.so.4.2:_ZN2cv3dnn14dnn4_v2019120214KeypointsModelC1ERKNS1_3NetE
libopencv_dnn.so.4.2:_ZN2cv3dnn14dnn4_v2019120214KeypointsModelC1ERKNSt7__cxx1112basic_stringIcSt11char_traitsIcESaIcEEESA_
libopencv_dnn.so.4.2:_ZN2cv3dnn14dnn4_v2019120214KeypointsModelC2ERKNS1_3NetE
libopencv_dnn.so.4.2:_ZN2cv3dnn14dnn4_v2019120214KeypointsModelC2ERKNSt7__cxx1112basic_stringIcSt11char_traitsIcESaIcEEESA_
libopencv_dnn.so.4.2:_ZN2cv3dnn14dnn4_v2019120214MaxUnpoolLayer6createERKNS1_11LayerParamsE
libopencv_dnn.so.4.2:_ZN2cv3dnn14dnn4_v2019120214blobFromImagesERKNS_11_InputArrayERKNS_12_OutputArrayEdNS_5Size_IiEERKNS_7Scalar_IdEEbbi
libopencv_dnn.so.4.2:_ZN2cv3dnn14dnn4_v2019120214blobFromImagesERKNS_11_InputArrayEdNS_5Size_IiEERKNS_7Scalar_IdEEbbi
libopencv_dnn.so.4.2:_ZN2cv3dnn14dnn4_v2019120214imagesFromBlobERKNS_3MatERKNS_12_OutputArrayE
libopencv_dnn.so.4.2:_ZN2cv3dnn14dnn4_v2019120214writeTextGraphERKNSt7__cxx1112basic_stringIcSt11char_traitsIcESaIcEEES9_
libopencv_dnn.so.4.2:_ZN2cv3dnn14dnn4_v2019120215readNetFromONNXEPKcm
libopencv_dnn.so.4.2:_ZN2cv3dnn14dnn4_v2019120215readNetFromONNXERKNSt7__cxx1112basic_stringIcSt11char_traitsIcESaIcEEE
libopencv_dnn.so.4.2:_ZN2cv3dnn14dnn4_v2019120215readNetFromONNXERKSt6vectorIhSaIhEE
libopencv_dnn.so.4.2:_ZN2cv3dnn14dnn4_v2019120216ConvolutionLayer6createERKNS1_11LayerParamsE
libopencv_dnn.so.4.2:_ZN2cv3dnn14dnn4_v2019120216readNetFromCaffeEPKcmS3_m
libopencv_dnn.so.4.2:_ZN2cv3dnn14dnn4_v2019120216readNetFromCaffeERKNSt7__cxx1112basic_stringIcSt11char_traitsIcESaIcEEES9_
libopencv_dnn.so.4.2:_ZN2cv3dnn14dnn4_v2019120216readNetFromCaffeERKSt6vectorIhSaIhEES6_
libopencv_dnn.so.4.2:_ZN2cv3dnn14dnn4_v2019120216readNetFromTorchERKNSt7__cxx1112basic_stringIcSt11char_traitsIcESaIcEEEbb
libopencv_dnn.so.4.2:_ZN2cv3dnn14dnn4_v2019120216shrinkCaffeModelERKNSt7__cxx1112basic_stringIcSt11char_traitsIcESaIcEEES9_RKSt6vectorIS7_SaIS7_EE
libopencv_dnn.so.4.2:_ZN2cv3dnn14dnn4_v2019120217InnerProductLayer6createERKNS1_11LayerParamsE
libopencv_dnn.so.4.2:_ZN2cv3dnn14dnn4_v2019120217SegmentationModel7segmentERKNS_11_InputArrayERKNS_12_OutputArrayE
libopencv_dnn.so.4.2:_ZN2cv3dnn14dnn4_v2019120217SegmentationModelC1ERKNS1_3NetE
libopencv_dnn.so.4.2:_ZN2cv3dnn14dnn4_v2019120217SegmentationModelC1ERKNSt7__cxx1112basic_stringIcSt11char_traitsIcESaIcEEESA_
libopencv_dnn.so.4.2:_ZN2cv3dnn14dnn4_v2019120217SegmentationModelC2ERKNS1_3NetE
libopencv_dnn.so.4.2:_ZN2cv3dnn14dnn4_v2019120217SegmentationModelC2ERKNSt7__cxx1112basic_stringIcSt11char_traitsIcESaIcEEESA_
libopencv_dnn.so.4.2:_ZN2cv3dnn14dnn4_v2019120217resetMyriadDeviceEv
libopencv_dnn.so.4.2:_ZN2cv3dnn14dnn4_v2019120218ChannelsPReLULayer6createERKNS1_11LayerParamsE
libopencv_dnn.so.4.2:_ZN2cv3dnn14dnn4_v2019120218CropAndResizeLayer6createERKNS1_11LayerParamsE
libopencv_dnn.so.4.2:_ZN2cv3dnn14dnn4_v2019120218DeconvolutionLayer6createERKNS1_11LayerParamsE
libopencv_dnn.so.4.2:_ZN2cv3dnn14dnn4_v2019120218NormalizeBBoxLayer6createERKNS1_11LayerParamsE
libopencv_dnn.so.4.2:_ZN2cv3dnn14dnn4_v2019120218readNetFromDarknetEPKcmS3_m
libopencv_dnn.so.4.2:_ZN2cv3dnn14dnn4_v2019120218readNetFromDarknetERKNSt7__cxx1112basic_stringIcSt11char_traitsIcESaIcEEES9_
libopencv_dnn.so.4.2:_ZN2cv3dnn14dnn4_v2019120218readNetFromDarknetERKSt6vectorIhSaIhEES6_
libopencv_dnn.so.4.2:_ZN2cv3dnn14dnn4_v2019120218readTensorFromONNXERKNSt7__cxx1112basic_stringIcSt11char_traitsIcESaIcEEE
libopencv_dnn.so.4.2:_ZN2cv3dnn14dnn4_v2019120219ClassificationModel8classifyERKNS_11_InputArrayE
libopencv_dnn.so.4.2:_ZN2cv3dnn14dnn4_v2019120219ClassificationModel8classifyERKNS_11_InputArrayERiRf
libopencv_dnn.so.4.2:_ZN2cv3dnn14dnn4_v2019120219ClassificationModelC1ERKNS1_3NetE
libopencv_dnn.so.4.2:_ZN2cv3dnn14dnn4_v2019120219ClassificationModelC1ERKNSt7__cxx1112basic_stringIcSt11char_traitsIcESaIcEEESA_
libopencv_dnn.so.4.2:_ZN2cv3dnn14dnn4_v2019120219ClassificationModelC2ERKNS1_3NetE
libopencv_dnn.so.4.2:_ZN2cv3dnn14dnn4_v2019120219ClassificationModelC2ERKNSt7__cxx1112basic_stringIcSt11char_traitsIcESaIcEEESA_
libopencv_dnn.so.4.2:_ZN2cv3dnn14dnn4_v2019120219ShuffleChannelLayer6createERKNS1_11LayerParamsE
libopencv_dnn.so.4.2:_ZN2cv3dnn14dnn4_v2019120219getAvailableTargetsENS1_7BackendE
libopencv_dnn.so.4.2:_ZN2cv3dnn14dnn4_v2019120220DetectionOutputLayer6createERKNS1_11LayerParamsE
libopencv_dnn.so.4.2:_ZN2cv3dnn14dnn4_v2019120220getAvailableBackendsEv
libopencv_dnn.so.4.2:_ZN2cv3dnn14dnn4_v2019120221readNetFromTensorflowEPKcmS3_m
libopencv_dnn.so.4.2:_ZN2cv3dnn14dnn4_v2019120221readNetFromTensorflowERKNSt7__cxx1112basic_stringIcSt11char_traitsIcESaIcEEES9_
libopencv_dnn.so.4.2:_ZN2cv3dnn14dnn4_v2019120221readNetFromTensorflowERKSt6vectorIhSaIhEES6_
libopencv_dnn.so.4.2:_ZN2cv3dnn14dnn4_v2019120225getInferenceEngineVPUTypeB5cxx11Ev
libopencv_dnn.so.4.2:_ZN2cv3dnn14dnn4_v2019120225readNetFromModelOptimizerEPKhmS3_m
libopencv_dnn.so.4.2:_ZN2cv3dnn14dnn4_v2019120225readNetFromModelOptimizerERKNSt7__cxx1112basic_stringIcSt11char_traitsIcESaIcEEES9_
libopencv_dnn.so.4.2:_ZN2cv3dnn14dnn4_v2019120225readNetFromModelOptimizerERKSt6vectorIhSaIhEES6_
libopencv_dnn.so.4.2:_ZN2cv3dnn14dnn4_v2019120229getInferenceEngineBackendTypeB5cxx11Ev
libopencv_dnn.so.4.2:_ZN2cv3dnn14dnn4_v2019120229setInferenceEngineBackendTypeERKNSt7__cxx1112basic_stringIcSt11char_traitsIcESaIcEEE
libopencv_dnn.so.4.2:_ZN2cv3dnn14dnn4_v201912023Net10dumpToFileERKNSt7__cxx1112basic_stringIcSt11char_traitsIcESaIcEEE
libopencv_dnn.so.4.2:_ZN2cv3dnn14dnn4_v201912023Net10getLayerIdERKNSt7__cxx1112basic_stringIcSt11char_traitsIcESaIcEEE
libopencv_dnn.so.4.2:_ZN2cv3dnn14dnn4_v201912023Net12enableFusionEb
libopencv_dnn.so.4.2:_ZN2cv3dnn14dnn4_v201912023Net12forwardAsyncERKNSt7__cxx1112basic_stringIcSt11char_traitsIcESaIcEEE
libopencv_dnn.so.4.2:_ZN2cv3dnn14dnn4_v201912023Net14addLayerToPrevERKNSt7__cxx1112basic_stringIcSt11char_traitsIcESaIcEEESA_RNS1_11LayerParamsE
libopencv_dnn.so.4.2:_ZN2cv3dnn14dnn4_v201912023Net14getLayerInputsENS1_9DictValueE
libopencv_dnn.so.4.2:_ZN2cv3dnn14dnn4_v201912023Net14getPerfProfileERSt6vectorIdSaIdEE
libopencv_dnn.so.4.2:_ZN2cv3dnn14dnn4_v201912023Net14setInputsNamesERKSt6vectorINSt7__cxx1112basic_stringIcSt11char_traitsIcESaIcEEESaIS9_EE
libopencv_dnn.so.4.2:_ZN2cv3dnn14dnn4_v201912023Net18setHalideSchedulerERKNSt7__cxx1112basic_stringIcSt11char_traitsIcESaIcEEE
libopencv_dnn.so.4.2:_ZN2cv3dnn14dnn4_v201912023Net19setPreferableTargetEi
libopencv_dnn.so.4.2:_ZN2cv3dnn14dnn4_v201912023Net20setPreferableBackendEi
libopencv_dnn.so.4.2:_ZN2cv3dnn14dnn4_v201912023Net22readFromModelOptimizerEPKhmS4_m
libopencv_dnn.so.4.2:_ZN2cv3dnn14dnn4_v201912023Net22readFromModelOptimizerERKNSt7__cxx1112basic_stringIcSt11char_traitsIcESaIcEEESA_
libopencv_dnn.so.4.2:_ZN2cv3dnn14dnn4_v201912023Net22readFromModelOptimizerERKSt6vectorIhSaIhEES7_
libopencv_dnn.so.4.2:_ZN2cv3dnn14dnn4_v201912023Net4dumpB5cxx11Ev
libopencv_dnn.so.4.2:_ZN2cv3dnn14dnn4_v201912023Net7connectENSt7__cxx1112basic_stringIcSt11char_traitsIcESaIcEEES8_
libopencv_dnn.so.4.2:_ZN2cv3dnn14dnn4_v201912023Net7connectEiiii
libopencv_dnn.so.4.2:_ZN2cv3dnn14dnn4_v201912023Net7forwardERKNS_12_OutputArrayERKNSt7__cxx1112basic_stringIcSt11char_traitsIcESaIcEEE
libopencv_dnn.so.4.2:_ZN2cv3dnn14dnn4_v201912023Net7forwardERKNS_12_OutputArrayERKSt6vectorINSt7__cxx1112basic_stringIcSt11char_traitsIcESaIcEEESaISC_EE
libopencv_dnn.so.4.2:_ZN2cv3dnn14dnn4_v201912023Net7forwardERKNSt7__cxx1112basic_stringIcSt11char_traitsIcESaIcEEE
libopencv_dnn.so.4.2:_ZN2cv3dnn14dnn4_v201912023Net7forwardERSt6vectorIS3_INS_3MatESaIS4_EESaIS6_EERKS3_INSt7__cxx1112basic_stringIcSt11char_traitsIcESaIcEEESaISF_EE
libopencv_dnn.so.4.2:_ZN2cv3dnn14dnn4_v201912023Net8addLayerERKNSt7__cxx1112basic_stringIcSt11char_traitsIcESaIcEEESA_RNS1_11LayerParamsE
libopencv_dnn.so.4.2:_ZN2cv3dnn14dnn4_v201912023Net8getLayerENS1_9DictValueE
libopencv_dnn.so.4.2:_ZN2cv3dnn14dnn4_v201912023Net8getParamENS1_9DictValueEi
libopencv_dnn.so.4.2:_ZN2cv3dnn14dnn4_v201912023Net8setInputERKNS_11_InputArrayERKNSt7__cxx1112basic_stringIcSt11char_traitsIcESaIcEEEdRKNS_7Scalar_IdEE
libopencv_dnn.so.4.2:_ZN2cv3dnn14dnn4_v201912023Net8setParamENS1_9DictValueEiRKNS_3MatE
libopencv_dnn.so.4.2:_ZN2cv3dnn14dnn4_v201912023NetC1Ev
libopencv_dnn.so.4.2:_ZN2cv3dnn14dnn4_v201912023NetC2Ev
libopencv_dnn.so.4.2:_ZN2cv3dnn14dnn4_v201912023NetD1Ev
libopencv_dnn.so.4.2:_ZN2cv3dnn14dnn4_v201912023NetD2Ev
libopencv_dnn.so.4.2:_ZN2cv3dnn14dnn4_v201912025Layer10initHalideERKSt6vectorINS_3PtrINS1_14BackendWrapperEEESaIS6_EE
libopencv_dnn.so.4.2:_ZN2cv3dnn14dnn4_v201912025Layer10initNgraphERKSt6vectorINS_3PtrINS1_14BackendWrapperEEESaIS6_EERKS3_INS4_INS1_11BackendNodeEEESaISC_EE
libopencv_dnn.so.4.2:_ZN2cv3dnn14dnn4_v201912025Layer13initInfEngineERKSt6vectorINS_3PtrINS1_14BackendWrapperEEESaIS6_EE
libopencv_dnn.so.4.2:_ZN2cv3dnn14dnn4_v201912025Layer13setActivationERKNS_3PtrINS1_15ActivationLayerEEE
libopencv_dnn.so.4.2:_ZN2cv3dnn14dnn4_v201912025Layer13setParamsFromERKNS1_11LayerParamsE
libopencv_dnn.so.4.2:_ZN2cv3dnn14dnn4_v201912025Layer13unsetAttachedEv
libopencv_dnn.so.4.2:_ZN2cv3dnn14dnn4_v201912025Layer14supportBackendEi
libopencv_dnn.so.4.2:_ZN2cv3dnn14dnn4_v201912025Layer16forward_fallbackERKNS_11_InputArrayERKNS_12_OutputArrayES8_
libopencv_dnn.so.4.2:_ZN2cv3dnn14dnn4_v201912025Layer16inputNameToIndexENSt7__cxx1112basic_stringIcSt11char_traitsIcESaIcEEE
libopencv_dnn.so.4.2:_ZN2cv3dnn14dnn4_v201912025Layer17outputNameToIndexERKNSt7__cxx1112basic_stringIcSt11char_traitsIcESaIcEEE
libopencv_dnn.so.4.2:_ZN2cv3dnn14dnn4_v201912025Layer3runERKSt6vectorINS_3MatESaIS4_EERS6_S9_
libopencv_dnn.so.4.2:_ZN2cv3dnn14dnn4_v201912025Layer7forwardERKNS_11_InputArrayERKNS_12_OutputArrayES8_
libopencv_dnn.so.4.2:_ZN2cv3dnn14dnn4_v201912025Layer7forwardERSt6vectorIPNS_3MatESaIS5_EERS3_IS4_SaIS4_EESB_
libopencv_dnn.so.4.2:_ZN2cv3dnn14dnn4_v201912025Layer7tryFuseERNS_3PtrIS2_EE
libopencv_dnn.so.4.2:_ZN2cv3dnn14dnn4_v201912025Layer8finalizeERKNS_11_InputArrayERKNS_12_OutputArrayE
libopencv_dnn.so.4.2:_ZN2cv3dnn14dnn4_v201912025Layer8finalizeERKSt6vectorINS_3MatESaIS4_EE
libopencv_dnn.so.4.2:_ZN2cv3dnn14dnn4_v201912025Layer8finalizeERKSt6vectorINS_3MatESaIS4_EERS6_
libopencv_dnn.so.4.2:_ZN2cv3dnn14dnn4_v201912025Layer8finalizeERKSt6vectorIPNS_3MatESaIS5_EERS3_IS4_SaIS4_EE
libopencv_dnn.so.4.2:_ZN2cv3dnn14dnn4_v201912025Layer8initCUDAEPvRKSt6vectorINS_3PtrINS1_14BackendWrapperEEESaIS7_EESB_
libopencv_dnn.so.4.2:_ZN2cv3dnn14dnn4_v201912025Layer9initVkComERKSt6vectorINS_3PtrINS1_14BackendWrapperEEESaIS6_EE
libopencv_dnn.so.4.2:_ZN2cv3dnn14dnn4_v201912025Layer9tryAttachERKNS_3PtrINS1_11BackendNodeEEE
libopencv_dnn.so.4.2:_ZN2cv3dnn14dnn4_v201912025LayerC1ERKNS1_11LayerParamsE
libopencv_dnn.so.4.2:_ZN2cv3dnn14dnn4_v201912025LayerC1Ev
libopencv_dnn.so.4.2:_ZN2cv3dnn14dnn4_v201912025LayerC2ERKNS1_11LayerParamsE
libopencv_dnn.so.4.2:_ZN2cv3dnn14dnn4_v201912025LayerC2Ev
libopencv_dnn.so.4.2:_ZN2cv3dnn14dnn4_v201912025LayerD0Ev
libopencv_dnn.so.4.2:_ZN2cv3dnn14dnn4_v201912025LayerD1Ev
libopencv_dnn.so.4.2:_ZN2cv3dnn14dnn4_v201912025LayerD2Ev
libopencv_dnn.so.4.2:_ZN2cv3dnn14dnn4_v201912025Model12setInputCropEb
libopencv_dnn.so.4.2:_ZN2cv3dnn14dnn4_v201912025Model12setInputMeanERKNS_7Scalar_IdEE
libopencv_dnn.so.4.2:_ZN2cv3dnn14dnn4_v201912025Model12setInputSizeERKNS_5Size_IiEE
libopencv_dnn.so.4.2:_ZN2cv3dnn14dnn4_v201912025Model12setInputSizeEii
libopencv_dnn.so.4.2:_ZN2cv3dnn14dnn4_v201912025Model13setInputScaleEd
libopencv_dnn.so.4.2:_ZN2cv3dnn14dnn4_v201912025Model14setInputParamsEdRKNS_5Size_IiEERKNS_7Scalar_IdEEbb
libopencv_dnn.so.4.2:_ZN2cv3dnn14dnn4_v201912025Model14setInputSwapRBEb
libopencv_dnn.so.4.2:_ZN2cv3dnn14dnn4_v201912025Model7predictERKNS_11_InputArrayERKNS_12_OutputArrayE
libopencv_dnn.so.4.2:_ZN2cv3dnn14dnn4_v201912025ModelC1ERKNS1_3NetE
libopencv_dnn.so.4.2:_ZN2cv3dnn14dnn4_v201912025ModelC1ERKNSt7__cxx1112basic_stringIcSt11char_traitsIcESaIcEEESA_
libopencv_dnn.so.4.2:_ZN2cv3dnn14dnn4_v201912025ModelC1Ev
libopencv_dnn.so.4.2:_ZN2cv3dnn14dnn4_v201912025ModelC2ERKNS1_3NetE
libopencv_dnn.so.4.2:_ZN2cv3dnn14dnn4_v201912025ModelC2ERKNSt7__cxx1112basic_stringIcSt11char_traitsIcESaIcEEESA_
libopencv_dnn.so.4.2:_ZN2cv3dnn14dnn4_v201912025ModelC2Ev
libopencv_dnn.so.4.2:_ZN2cv3dnn14dnn4_v201912027readNetERKNSt7__cxx1112basic_stringIcSt11char_traitsIcESaIcEEERKSt6vectorIhSaIhEESE_
libopencv_dnn.so.4.2:_ZN2cv3dnn14dnn4_v201912027readNetERKNSt7__cxx1112basic_stringIcSt11char_traitsIcESaIcEEES9_S9_
libopencv_dnn.so.4.2:_ZN2cv3dnn14dnn4_v201912028AbsLayer6createERKNS1_11LayerParamsE
libopencv_dnn.so.4.2:_ZN2cv3dnn14dnn4_v201912028ELULayer6createERKNS1_11LayerParamsE
libopencv_dnn.so.4.2:_ZN2cv3dnn14dnn4_v201912028LRNLayer6createERKNS1_11LayerParamsE
libopencv_dnn.so.4.2:_ZN2cv3dnn14dnn4_v201912028MVNLayer6createERKNS1_11LayerParamsE
libopencv_dnn.so.4.2:_ZN2cv3dnn14dnn4_v201912028NMSBoxesERKSt6vectorINS_11RotatedRectESaIS3_EERKS2_IfSaIfEEffRS2_IiSaIiEEfi
libopencv_dnn.so.4.2:_ZN2cv3dnn14dnn4_v201912028NMSBoxesERKSt6vectorINS_5Rect_IdEESaIS4_EERKS2_IfSaIfEEffRS2_IiSaIiEEfi
libopencv_dnn.so.4.2:_ZN2cv3dnn14dnn4_v201912028NMSBoxesERKSt6vectorINS_5Rect_IiEESaIS4_EERKS2_IfSaIfEEffRS2_IiSaIiEEfi
libopencv_dnn.so.4.2:_ZN2cv3dnn14dnn4_v201912028RNNLayer6createERKNS1_11LayerParamsE
libopencv_dnn.so.4.2:_ZN2cv3dnn14dnn4_v201912029BNLLLayer6createERKNS1_11LayerParamsE
libopencv_dnn.so.4.2:_ZN2cv3dnn14dnn4_v201912029CropLayer6createERKNS1_11LayerParamsE
libopencv_dnn.so.4.2:_ZN2cv3dnn14dnn4_v201912029LSTMLayer16inputNameToIndexENSt7__cxx1112basic_stringIcSt11char_traitsIcESaIcEEE
libopencv_dnn.so.4.2:_ZN2cv3dnn14dnn4_v201912029LSTMLayer17outputNameToIndexERKNSt7__cxx1112basic_stringIcSt11char_traitsIcESaIcEEE
libopencv_dnn.so.4.2:_ZN2cv3dnn14dnn4_v201912029LSTMLayer6createERKNS1_11LayerParamsE
libopencv_dnn.so.4.2:_ZN2cv3dnn14dnn4_v201912029MishLayer6createERKNS1_11LayerParamsE
libopencv_dnn.so.4.2:_ZN2cv3dnn14dnn4_v201912029ReLULayer6createERKNS1_11LayerParamsE
libopencv_dnn.so.4.2:_ZN2cv3dnn14dnn4_v201912029TanHLayer6createERKNS1_11LayerParamsE
libopencv_dnn.so.4.2:_ZNK2cv3dnn14dnn4_v201912023Net13getLayerNamesB5cxx11Ev
libopencv_dnn.so.4.2:_ZNK2cv3dnn14dnn4_v201912023Net13getLayerTypesERSt6vectorINSt7__cxx1112basic_stringIcSt11char_traitsIcESaIcEEESaIS9_EE
libopencv_dnn.so.4.2:_ZNK2cv3dnn14dnn4_v201912023Net14getLayerShapesERKSt6vectorIS3_IiSaIiEESaIS5_EEiRS7_SA_
libopencv_dnn.so.4.2:_ZNK2cv3dnn14dnn4_v201912023Net14getLayerShapesERKSt6vectorIiSaIiEEiRS3_IS5_SaIS5_EESA_
libopencv_dnn.so.4.2:_ZNK2cv3dnn14dnn4_v201912023Net14getLayersCountERKNSt7__cxx1112basic_stringIcSt11char_traitsIcESaIcEEE
libopencv_dnn.so.4.2:_ZNK2cv3dnn14dnn4_v201912023Net15getLayersShapesERKSt6vectorIS3_IiSaIiEESaIS5_EERS5_RS3_IS7_SaIS7_EESD_
libopencv_dnn.so.4.2:_ZNK2cv3dnn14dnn4_v201912023Net15getLayersShapesERKSt6vectorIiSaIiEERS5_RS3_IS3_IS5_SaIS5_EESaISA_EESD_
libopencv_dnn.so.4.2:_ZNK2cv3dnn14dnn4_v201912023Net20getMemoryConsumptionERKSt6vectorIS3_IiSaIiEESaIS5_EERS5_RS3_ImSaImEESD_
libopencv_dnn.so.4.2:_ZNK2cv3dnn14dnn4_v201912023Net20getMemoryConsumptionERKSt6vectorIS3_IiSaIiEESaIS5_EERmSA_
libopencv_dnn.so.4.2:_ZNK2cv3dnn14dnn4_v201912023Net20getMemoryConsumptionERKSt6vectorIiSaIiEERS5_RS3_ImSaImEESB_
libopencv_dnn.so.4.2:_ZNK2cv3dnn14dnn4_v201912023Net20getMemoryConsumptionERKSt6vectorIiSaIiEERmS8_
libopencv_dnn.so.4.2:_ZNK2cv3dnn14dnn4_v201912023Net20getMemoryConsumptionEiRKSt6vectorIS3_IiSaIiEESaIS5_EERmSA_
libopencv_dnn.so.4.2:_ZNK2cv3dnn14dnn4_v201912023Net20getMemoryConsumptionEiRKSt6vectorIiSaIiEERmS8_
libopencv_dnn.so.4.2:_ZNK2cv3dnn14dnn4_v201912023Net23getUnconnectedOutLayersEv
libopencv_dnn.so.4.2:_ZNK2cv3dnn14dnn4_v201912023Net28getUnconnectedOutLayersNamesB5cxx11Ev
libopencv_dnn.so.4.2:_ZNK2cv3dnn14dnn4_v201912023Net5emptyEv
libopencv_dnn.so.4.2:_ZNK2cv3dnn14dnn4_v201912023Net8getFLOPSERKSt6vectorIS3_IiSaIiEESaIS5_EE
libopencv_dnn.so.4.2:_ZNK2cv3dnn14dnn4_v201912023Net8getFLOPSERKSt6vectorIiSaIiEE
libopencv_dnn.so.4.2:_ZNK2cv3dnn14dnn4_v201912023Net8getFLOPSEiRKSt6vectorIS3_IiSaIiEESaIS5_EE
libopencv_dnn.so.4.2:_ZNK2cv3dnn14dnn4_v201912023Net8getFLOPSEiRKSt6vectorIiSaIiEE
libopencv_dnn.so.4.2:_ZNK2cv3dnn14dnn4_v201912025Layer13getScaleShiftERNS_3MatES4_
libopencv_dnn.so.4.2:_ZNK2cv3dnn14dnn4_v201912025Layer15getMemoryShapesERKSt6vectorIS3_IiSaIiEESaIS5_EEiRS7_SA_
libopencv_dnn.so.4.2:_ZNK2cv3dnn14dnn4_v201912025Layer20applyHalideSchedulerERNS_3PtrINS1_11BackendNodeEEERKSt6vectorIPNS_3MatESaIS9_EERKS7_IS8_SaIS8_EEi
libopencv_features2d.so.4.2:_ZN2cv10BOWTrainer3addERKNS_3MatE
libopencv_features2d.so.4.2:_ZN2cv10BOWTrainer5clearEv
libopencv_features2d.so.4.2:_ZN2cv10BOWTrainerC1Ev
libopencv_features2d.so.4.2:_ZN2cv10BOWTrainerC2Ev
libopencv_features2d.so.4.2:_ZN2cv10BOWTrainerD0Ev
libopencv_features2d.so.4.2:_ZN2cv10BOWTrainerD1Ev
libopencv_features2d.so.4.2:_ZN2cv10BOWTrainerD2Ev
libopencv_features2d.so.4.2:_ZN2cv11cornerScoreILi12EEEiPKhPKii
libopencv_features2d.so.4.2:_ZN2cv11cornerScoreILi16EEEiPKhPKii
libopencv_features2d.so.4.2:_ZN2cv11cornerScoreILi8EEEiPKhPKii
libopencv_features2d.so.4.2:_ZN2cv11drawMatchesERKNS_11_InputArrayERKSt6vectorINS_8KeyPointESaIS4_EES2_S8_RKS3_INS_6DMatchESaIS9_EERKNS_17_InputOutputArrayERKNS_7Scalar_IdEESK_RKS3_IcSaIcEENS_16DrawMatchesFlagsE
libopencv_features2d.so.4.2:_ZN2cv11drawMatchesERKNS_11_InputArrayERKSt6vectorINS_8KeyPointESaIS4_EES2_S8_RKS3_IS3_INS_6DMatchESaIS9_EESaISB_EERKNS_17_InputOutputArrayERKNS_7Scalar_IdEESM_RKS3_IS3_IcSaIcEESaISO_EENS_16DrawMatchesFlagsE
libopencv_features2d.so.4.2:_ZN2cv12GFTTDetector6createEiddibd
libopencv_features2d.so.4.2:_ZN2cv12GFTTDetector6createEiddiibd
libopencv_features2d.so.4.2:_ZN2cv13drawKeypointsERKNS_11_InputArrayERKSt6vectorINS_8KeyPointESaIS4_EERKNS_17_InputOutputArrayERKNS_7Scalar_IdEENS_16DrawMatchesFlagsE
libopencv_features2d.so.4.2:_ZN2cv15KeyPointsFilter10retainBestERSt6vectorINS_8KeyPointESaIS2_EEi
libopencv_features2d.so.4.2:_ZN2cv15KeyPointsFilter15runByPixelsMaskERSt6vectorINS_8KeyPointESaIS2_EERKNS_3MatE
libopencv_features2d.so.4.2:_ZN2cv15KeyPointsFilter16removeDuplicatedERSt6vectorINS_8KeyPointESaIS2_EE
libopencv_features2d.so.4.2:_ZN2cv15KeyPointsFilter16runByImageBorderERSt6vectorINS_8KeyPointESaIS2_EENS_5Size_IiEEi
libopencv_features2d.so.4.2:_ZN2cv15KeyPointsFilter17runByKeypointSizeERSt6vectorINS_8KeyPointESaIS2_EEff
libopencv_features2d.so.4.2:_ZN2cv15KeyPointsFilter22removeDuplicatedSortedERSt6vectorINS_8KeyPointESaIS2_EE
libopencv_features2d.so.4.2:_ZN2cv15getNearestPointERKSt6vectorINS_6Point_IfEESaIS2_EEf
libopencv_features2d.so.4.2:_ZN2cv16BOWKMeansTrainerC1EiRKNS_12TermCriteriaEii
libopencv_features2d.so.4.2:_ZN2cv16BOWKMeansTrainerC2EiRKNS_12TermCriteriaEii
libopencv_features2d.so.4.2:_ZN2cv16BOWKMeansTrainerD0Ev
libopencv_features2d.so.4.2:_ZN2cv16BOWKMeansTrainerD1Ev
libopencv_features2d.so.4.2:_ZN2cv16BOWKMeansTrainerD2Ev
libopencv_features2d.so.4.2:_ZN2cv17DescriptorMatcher11isMaskedOutERKNS_11_InputArrayEi
libopencv_features2d.so.4.2:_ZN2cv17DescriptorMatcher11radiusMatchERKNS_11_InputArrayERSt6vectorIS4_INS_6DMatchESaIS5_EESaIS7_EEfS3_b
libopencv_features2d.so.4.2:_ZN2cv17DescriptorMatcher15isPossibleMatchERKNS_11_InputArrayEii
libopencv_features2d.so.4.2:_ZN2cv17DescriptorMatcher20DescriptorCollection3setERKSt6vectorINS_3MatESaIS3_EE
libopencv_features2d.so.4.2:_ZN2cv17DescriptorMatcher20DescriptorCollection5clearEv
libopencv_features2d.so.4.2:_ZN2cv17DescriptorMatcher20DescriptorCollectionC1ERKS1_
libopencv_features2d.so.4.2:_ZN2cv17DescriptorMatcher20DescriptorCollectionC1Ev
libopencv_features2d.so.4.2:_ZN2cv17DescriptorMatcher20DescriptorCollectionC2ERKS1_
libopencv_features2d.so.4.2:_ZN2cv17DescriptorMatcher20DescriptorCollectionC2Ev
libopencv_features2d.so.4.2:_ZN2cv17DescriptorMatcher20DescriptorCollectionD0Ev
libopencv_features2d.so.4.2:_ZN2cv17DescriptorMatcher20DescriptorCollectionD1Ev
libopencv_features2d.so.4.2:_ZN2cv17DescriptorMatcher20DescriptorCollectionD2Ev
libopencv_features2d.so.4.2:_ZN2cv17DescriptorMatcher3addERKNS_11_InputArrayE
libopencv_features2d.so.4.2:_ZN2cv17DescriptorMatcher4readERKNS_8FileNodeE
libopencv_features2d.so.4.2:_ZN2cv17DescriptorMatcher5clearEv
libopencv_features2d.so.4.2:_ZN2cv17DescriptorMatcher5matchERKNS_11_InputArrayERSt6vectorINS_6DMatchESaIS5_EES3_
libopencv_features2d.so.4.2:_ZN2cv17DescriptorMatcher5trainEv
libopencv_features2d.so.4.2:_ZN2cv17DescriptorMatcher6createERKNS0_11MatcherTypeE
libopencv_features2d.so.4.2:_ZN2cv17DescriptorMatcher6createERKNSt7__cxx1112basic_stringIcSt11char_traitsIcESaIcEEE
libopencv_features2d.so.4.2:_ZN2cv17DescriptorMatcher8knnMatchERKNS_11_InputArrayERSt6vectorIS4_INS_6DMatchESaIS5_EESaIS7_EEiS3_b
libopencv_features2d.so.4.2:_ZN2cv17DescriptorMatcherD0Ev
libopencv_features2d.so.4.2:_ZN2cv17DescriptorMatcherD1Ev
libopencv_features2d.so.4.2:_ZN2cv17DescriptorMatcherD2Ev
libopencv_features2d.so.4.2:_ZN2cv17FlannBasedMatcher12knnMatchImplERKNS_11_InputArrayERSt6vectorIS4_INS_6DMatchESaIS5_EESaIS7_EEiS3_b
libopencv_features2d.so.4.2:_ZN2cv17FlannBasedMatcher15radiusMatchImplERKNS_11_InputArrayERSt6vectorIS4_INS_6DMatchESaIS5_EESaIS7_EEfS3_b
libopencv_features2d.so.4.2:_ZN2cv17FlannBasedMatcher17convertToDMatchesERKNS_17DescriptorMatcher20DescriptorCollectionERKNS_3MatES7_RSt6vectorIS8_INS_6DMatchESaIS9_EESaISB_EE
libopencv_features2d.so.4.2:_ZN2cv17FlannBasedMatcher3addERKNS_11_InputArrayE
libopencv_features2d.so.4.2:_ZN2cv17FlannBasedMatcher4readERKNS_8FileNodeE
libopencv_features2d.so.4.2:_ZN2cv17FlannBasedMatcher5clearEv
libopencv_features2d.so.4.2:_ZN2cv17FlannBasedMatcher5trainEv
libopencv_features2d.so.4.2:_ZN2cv17FlannBasedMatcher6createEv
libopencv_features2d.so.4.2:_ZN2cv17FlannBasedMatcherC1ERKNS_3PtrINS_5flann11IndexParamsEEERKNS1_INS2_12SearchParamsEEE
libopencv_features2d.so.4.2:_ZN2cv17FlannBasedMatcherC2ERKNS_3PtrINS_5flann11IndexParamsEEERKNS1_INS2_12SearchParamsEEE
libopencv_features2d.so.4.2:_ZN2cv17agast_cornerScoreILNS_20AgastFeatureDetector12DetectorTypeE0EEEiPKhPKii
libopencv_features2d.so.4.2:_ZN2cv17agast_cornerScoreILNS_20AgastFeatureDetector12DetectorTypeE1EEEiPKhPKii
libopencv_features2d.so.4.2:_ZN2cv17agast_cornerScoreILNS_20AgastFeatureDetector12DetectorTypeE2EEEiPKhPKii
libopencv_features2d.so.4.2:_ZN2cv17agast_cornerScoreILNS_20AgastFeatureDetector12DetectorTypeE3EEEiPKhPKii
libopencv_features2d.so.4.2:_ZN2cv18SimpleBlobDetector6Params4readERKNS_8FileNodeE
libopencv_features2d.so.4.2:_ZN2cv18SimpleBlobDetector6ParamsC1Ev
libopencv_features2d.so.4.2:_ZN2cv18SimpleBlobDetector6ParamsC2Ev
libopencv_features2d.so.4.2:_ZN2cv18SimpleBlobDetector6createERKNS0_6ParamsE
libopencv_features2d.so.4.2:_ZN2cv19FastFeatureDetector6createEibNS0_12DetectorTypeE
libopencv_features2d.so.4.2:_ZN2cv20AgastFeatureDetector6createEibNS0_12DetectorTypeE
libopencv_features2d.so.4.2:_ZN2cv22SimpleBlobDetectorImpl4readERKNS_8FileNodeE
libopencv_features2d.so.4.2:_ZN2cv22SimpleBlobDetectorImpl6detectERKNS_11_InputArrayERSt6vectorINS_8KeyPointESaIS5_EES3_
libopencv_features2d.so.4.2:_ZN2cv22SimpleBlobDetectorImplC1ERKNS_18SimpleBlobDetector6ParamsE
libopencv_features2d.so.4.2:_ZN2cv22SimpleBlobDetectorImplC2ERKNS_18SimpleBlobDetector6ParamsE
libopencv_features2d.so.4.2:_ZN2cv23evaluateFeatureDetectorERKNS_3MatES2_S2_PSt6vectorINS_8KeyPointESaIS4_EES7_RfRiRKNS_3PtrINS_9Feature2DEEE
libopencv_features2d.so.4.2:_ZN2cv25BOWImgDescriptorExtractor13setVocabularyERKNS_3MatE
libopencv_features2d.so.4.2:_ZN2cv25BOWImgDescriptorExtractor7computeERKNS_11_InputArrayERKNS_12_OutputArrayEPSt6vectorIS7_IiSaIiEESaIS9_EE
libopencv_features2d.so.4.2:_ZN2cv25BOWImgDescriptorExtractor7computeERKNS_11_InputArrayERSt6vectorINS_8KeyPointESaIS5_EERKNS_12_OutputArrayEPS4_IS4_IiSaIiEESaISD_EEPNS_3MatE
libopencv_features2d.so.4.2:_ZN2cv25BOWImgDescriptorExtractorC1ERKNS_3PtrINS_17DescriptorMatcherEEE
libopencv_features2d.so.4.2:_ZN2cv25BOWImgDescriptorExtractorC1ERKNS_3PtrINS_9Feature2DEEERKNS1_INS_17DescriptorMatcherEEE
libopencv_features2d.so.4.2:_ZN2cv25BOWImgDescriptorExtractorC2ERKNS_3PtrINS_17DescriptorMatcherEEE
libopencv_features2d.so.4.2:_ZN2cv25BOWImgDescriptorExtractorC2ERKNS_3PtrINS_9Feature2DEEERKNS1_INS_17DescriptorMatcherEEE
libopencv_features2d.so.4.2:_ZN2cv25BOWImgDescriptorExtractorD0Ev
libopencv_features2d.so.4.2:_ZN2cv25BOWImgDescriptorExtractorD1Ev
libopencv_features2d.so.4.2:_ZN2cv25BOWImgDescriptorExtractorD2Ev
libopencv_features2d.so.4.2:_ZN2cv27computeRecallPrecisionCurveERKSt6vectorIS0_INS_6DMatchESaIS1_EESaIS3_EERKS0_IS0_IhSaIhEESaIS9_EERS0_INS_6Point_IfEESaISF_EE
libopencv_features2d.so.4.2:_ZN2cv3ORB6createEifiiiiNS0_9ScoreTypeEii
libopencv_features2d.so.4.2:_ZN2cv4FASTERKNS_11_InputArrayERSt6vectorINS_8KeyPointESaIS4_EEib
libopencv_features2d.so.4.2:_ZN2cv4FASTERKNS_11_InputArrayERSt6vectorINS_8KeyPointESaIS4_EEibNS_19FastFeatureDetector12DetectorTypeE
libopencv_features2d.so.4.2:_ZN2cv4KAZE6createEbbfiiNS0_15DiffusivityTypeE
libopencv_features2d.so.4.2:_ZN2cv4MSER6createEiiiddiddi
libopencv_features2d.so.4.2:_ZN2cv5AGASTERKNS_11_InputArrayERSt6vectorINS_8KeyPointESaIS4_EEib
libopencv_features2d.so.4.2:_ZN2cv5AGASTERKNS_11_InputArrayERSt6vectorINS_8KeyPointESaIS4_EEibNS_20AgastFeatureDetector12DetectorTypeE
libopencv_features2d.so.4.2:_ZN2cv5AKAZE6createENS0_14DescriptorTypeEiifiiNS_4KAZE15DiffusivityTypeE
libopencv_features2d.so.4.2:_ZN2cv5BRISK6createERKSt6vectorIfSaIfEERKS1_IiSaIiEEffS9_
libopencv_features2d.so.4.2:_ZN2cv5BRISK6createEiiRKSt6vectorIfSaIfEERKS1_IiSaIiEEffS9_
libopencv_features2d.so.4.2:_ZN2cv5BRISK6createEiif
libopencv_features2d.so.4.2:_ZN2cv9BFMatcher12knnMatchImplERKNS_11_InputArrayERSt6vectorIS4_INS_6DMatchESaIS5_EESaIS7_EEiS3_b
libopencv_features2d.so.4.2:_ZN2cv9BFMatcher15radiusMatchImplERKNS_11_InputArrayERSt6vectorIS4_INS_6DMatchESaIS5_EESaIS7_EEfS3_b
libopencv_features2d.so.4.2:_ZN2cv9BFMatcher6createEib
libopencv_features2d.so.4.2:_ZN2cv9BFMatcherC1Eib
libopencv_features2d.so.4.2:_ZN2cv9BFMatcherC2Eib
libopencv_features2d.so.4.2:_ZN2cv9Feature2D16detectAndComputeERKNS_11_InputArrayES3_RSt6vectorINS_8KeyPointESaIS5_EERKNS_12_OutputArrayEb
libopencv_features2d.so.4.2:_ZN2cv9Feature2D4readERKNS_8FileNodeE
libopencv_features2d.so.4.2:_ZN2cv9Feature2D4readERKNSt7__cxx1112basic_stringIcSt11char_traitsIcESaIcEEE
libopencv_features2d.so.4.2:_ZN2cv9Feature2D6detectERKNS_11_InputArrayERSt6vectorINS_8KeyPointESaIS5_EES3_
libopencv_features2d.so.4.2:_ZN2cv9Feature2D6detectERKNS_11_InputArrayERSt6vectorIS4_INS_8KeyPointESaIS5_EESaIS7_EES3_
libopencv_features2d.so.4.2:_ZN2cv9Feature2D7computeERKNS_11_InputArrayERSt6vectorINS_8KeyPointESaIS5_EERKNS_12_OutputArrayE
libopencv_features2d.so.4.2:_ZN2cv9Feature2D7computeERKNS_11_InputArrayERSt6vectorIS4_INS_8KeyPointESaIS5_EESaIS7_EERKNS_12_OutputArrayE
libopencv_features2d.so.4.2:_ZN2cv9Feature2DD0Ev
libopencv_features2d.so.4.2:_ZN2cv9Feature2DD1Ev
libopencv_features2d.so.4.2:_ZN2cv9Feature2DD2Ev
libopencv_features2d.so.4.2:_ZN2cv9getRecallERKSt6vectorINS_6Point_IfEESaIS2_EEf
libopencv_features2d.so.4.2:_ZNK2cv10BOWTrainer14getDescriptorsEv
libopencv_features2d.so.4.2:_ZNK2cv10BOWTrainer16descriptorsCountEv
libopencv_features2d.so.4.2:_ZNK2cv12GFTTDetector14getDefaultNameB5cxx11Ev
libopencv_features2d.so.4.2:_ZNK2cv16BOWKMeansTrainer7clusterERKNS_3MatE
libopencv_features2d.so.4.2:_ZNK2cv16BOWKMeansTrainer7clusterEv
libopencv_features2d.so.4.2:_ZNK2cv17DescriptorMatcher10checkMasksERKNS_11_InputArrayEi
libopencv_features2d.so.4.2:_ZNK2cv17DescriptorMatcher11radiusMatchERKNS_11_InputArrayES3_RSt6vectorIS4_INS_6DMatchESaIS5_EESaIS7_EEfS3_b
libopencv_features2d.so.4.2:_ZNK2cv17DescriptorMatcher19getTrainDescriptorsEv
libopencv_features2d.so.4.2:_ZNK2cv17DescriptorMatcher20DescriptorCollection11getLocalIdxEiRiS2_
libopencv_features2d.so.4.2:_ZNK2cv17DescriptorMatcher20DescriptorCollection13getDescriptorEi
libopencv_features2d.so.4.2:_ZNK2cv17DescriptorMatcher20DescriptorCollection13getDescriptorEii
libopencv_features2d.so.4.2:_ZNK2cv17DescriptorMatcher20DescriptorCollection14getDescriptorsEv
libopencv_features2d.so.4.2:_ZNK2cv17DescriptorMatcher20DescriptorCollection4sizeEv
libopencv_features2d.so.4.2:_ZNK2cv17DescriptorMatcher5emptyEv
libopencv_features2d.so.4.2:_ZNK2cv17DescriptorMatcher5matchERKNS_11_InputArrayES3_RSt6vectorINS_6DMatchESaIS5_EES3_
libopencv_features2d.so.4.2:_ZNK2cv17DescriptorMatcher5writeERNS_11FileStorageE
libopencv_features2d.so.4.2:_ZNK2cv17DescriptorMatcher8knnMatchERKNS_11_InputArrayES3_RSt6vectorIS4_INS_6DMatchESaIS5_EESaIS7_EEiS3_b
libopencv_features2d.so.4.2:_ZNK2cv17FlannBasedMatcher15isMaskSupportedEv
libopencv_features2d.so.4.2:_ZNK2cv17FlannBasedMatcher5cloneEb
libopencv_features2d.so.4.2:_ZNK2cv17FlannBasedMatcher5writeERNS_11FileStorageE
libopencv_features2d.so.4.2:_ZNK2cv18SimpleBlobDetector14getDefaultNameB5cxx11Ev
libopencv_features2d.so.4.2:_ZNK2cv18SimpleBlobDetector6Params5writeERNS_11FileStorageE
libopencv_features2d.so.4.2:_ZNK2cv19FastFeatureDetector14getDefaultNameB5cxx11Ev
libopencv_features2d.so.4.2:_ZNK2cv20AgastFeatureDetector14getDefaultNameB5cxx11Ev
libopencv_features2d.so.4.2:_ZNK2cv22SimpleBlobDetectorImpl5writeERNS_11FileStorageE
libopencv_features2d.so.4.2:_ZNK2cv22SimpleBlobDetectorImpl9findBlobsERKNS_11_InputArrayES3_RSt6vectorINS0_6CenterESaIS5_EE
libopencv_features2d.so.4.2:_ZNK2cv25BOWImgDescriptorExtractor13getVocabularyEv
libopencv_features2d.so.4.2:_ZNK2cv25BOWImgDescriptorExtractor14descriptorSizeEv
libopencv_features2d.so.4.2:_ZNK2cv25BOWImgDescriptorExtractor14descriptorTypeEv
libopencv_features2d.so.4.2:_ZNK2cv3ORB14getDefaultNameB5cxx11Ev
libopencv_features2d.so.4.2:_ZNK2cv4KAZE14getDefaultNameB5cxx11Ev
libopencv_features2d.so.4.2:_ZNK2cv4MSER14getDefaultNameB5cxx11Ev
libopencv_features2d.so.4.2:_ZNK2cv5AKAZE14getDefaultNameB5cxx11Ev
libopencv_features2d.so.4.2:_ZNK2cv5BRISK14getDefaultNameB5cxx11Ev
libopencv_features2d.so.4.2:_ZNK2cv9BFMatcher5cloneEb
libopencv_features2d.so.4.2:_ZNK2cv9Feature2D11defaultNormEv
libopencv_features2d.so.4.2:_ZNK2cv9Feature2D14descriptorSizeEv
libopencv_features2d.so.4.2:_ZNK2cv9Feature2D14descriptorTypeEv
libopencv_features2d.so.4.2:_ZNK2cv9Feature2D14getDefaultNameB5cxx11Ev
libopencv_features2d.so.4.2:_ZNK2cv9Feature2D5emptyEv
libopencv_features2d.so.4.2:_ZNK2cv9Feature2D5writeERKNSt7__cxx1112basic_stringIcSt11char_traitsIcESaIcEEE
libopencv_features2d.so.4.2:_ZNK2cv9Feature2D5writeERNS_11FileStorageE
libopencv_features2d.so.4.2:_ZTv0_n24_N2cv9Feature2DD0Ev
libopencv_features2d.so.4.2:_ZTv0_n24_N2cv9Feature2DD1Ev
libopencv_features2d.so.4.2:_ZTv0_n40_NK2cv22SimpleBlobDetectorImpl5writeERNS_11FileStorageE
libopencv_features2d.so.4.2:_ZTv0_n40_NK2cv9Feature2D5writeERNS_11FileStorageE
libopencv_features2d.so.4.2:_ZTv0_n48_N2cv22SimpleBlobDetectorImpl4readERKNS_8FileNodeE
libopencv_features2d.so.4.2:_ZTv0_n48_N2cv9Feature2D4readERKNS_8FileNodeE
libopencv_features2d.so.4.2:_ZTv0_n56_NK2cv9Feature2D5emptyEv
libopencv_features2d.so.4.2:_ZTv0_n72_NK2cv12GFTTDetector14getDefaultNameB5cxx11Ev
libopencv_features2d.so.4.2:_ZTv0_n72_NK2cv18SimpleBlobDetector14getDefaultNameB5cxx11Ev
libopencv_features2d.so.4.2:_ZTv0_n72_NK2cv19FastFeatureDetector14getDefaultNameB5cxx11Ev
libopencv_features2d.so.4.2:_ZTv0_n72_NK2cv20AgastFeatureDetector14getDefaultNameB5cxx11Ev
libopencv_features2d.so.4.2:_ZTv0_n72_NK2cv3ORB14getDefaultNameB5cxx11Ev
libopencv_features2d.so.4.2:_ZTv0_n72_NK2cv4KAZE14getDefaultNameB5cxx11Ev
libopencv_features2d.so.4.2:_ZTv0_n72_NK2cv4MSER14getDefaultNameB5cxx11Ev
libopencv_features2d.so.4.2:_ZTv0_n72_NK2cv5AKAZE14getDefaultNameB5cxx11Ev
libopencv_features2d.so.4.2:_ZTv0_n72_NK2cv5BRISK14getDefaultNameB5cxx11Ev
libopencv_features2d.so.4.2:_ZTv0_n72_NK2cv9Feature2D14getDefaultNameB5cxx11Ev
libopencv_flann.so.4.2:_ZN2cv5flann11IndexParams12setAlgorithmEi
libopencv_flann.so.4.2:_ZN2cv5flann11IndexParams6setIntERKNSt7__cxx1112basic_stringIcSt11char_traitsIcESaIcEEEi
libopencv_flann.so.4.2:_ZN2cv5flann11IndexParams7setBoolERKNSt7__cxx1112basic_stringIcSt11char_traitsIcESaIcEEEb
libopencv_flann.so.4.2:_ZN2cv5flann11IndexParams8setFloatERKNSt7__cxx1112basic_stringIcSt11char_traitsIcESaIcEEEf
libopencv_flann.so.4.2:_ZN2cv5flann11IndexParams9setDoubleERKNSt7__cxx1112basic_stringIcSt11char_traitsIcESaIcEEEd
libopencv_flann.so.4.2:_ZN2cv5flann11IndexParams9setStringERKNSt7__cxx1112basic_stringIcSt11char_traitsIcESaIcEEES9_
libopencv_flann.so.4.2:_ZN2cv5flann11IndexParamsC1Ev
libopencv_flann.so.4.2:_ZN2cv5flann11IndexParamsC2Ev
libopencv_flann.so.4.2:_ZN2cv5flann11IndexParamsD1Ev
libopencv_flann.so.4.2:_ZN2cv5flann11IndexParamsD2Ev
libopencv_flann.so.4.2:_ZN2cv5flann12SearchParamsC1Eifb
libopencv_flann.so.4.2:_ZN2cv5flann12SearchParamsC2Eifb
libopencv_flann.so.4.2:_ZN2cv5flann14LshIndexParamsC1Eiii
libopencv_flann.so.4.2:_ZN2cv5flann14LshIndexParamsC2Eiii
libopencv_flann.so.4.2:_ZN2cv5flann16SavedIndexParamsC1ERKNSt7__cxx1112basic_stringIcSt11char_traitsIcESaIcEEE
libopencv_flann.so.4.2:_ZN2cv5flann16SavedIndexParamsC2ERKNSt7__cxx1112basic_stringIcSt11char_traitsIcESaIcEEE
libopencv_flann.so.4.2:_ZN2cv5flann17KDTreeIndexParamsC1Ei
libopencv_flann.so.4.2:_ZN2cv5flann17KDTreeIndexParamsC2Ei
libopencv_flann.so.4.2:_ZN2cv5flann17KMeansIndexParamsC1EiiN7cvflann20flann_centers_init_tEf
libopencv_flann.so.4.2:_ZN2cv5flann17KMeansIndexParamsC2EiiN7cvflann20flann_centers_init_tEf
libopencv_flann.so.4.2:_ZN2cv5flann17LinearIndexParamsC1Ev
libopencv_flann.so.4.2:_ZN2cv5flann17LinearIndexParamsC2Ev
libopencv_flann.so.4.2:_ZN2cv5flann20AutotunedIndexParamsC1Effff
libopencv_flann.so.4.2:_ZN2cv5flann20AutotunedIndexParamsC2Effff
libopencv_flann.so.4.2:_ZN2cv5flann20CompositeIndexParamsC1EiiiN7cvflann20flann_centers_init_tEf
libopencv_flann.so.4.2:_ZN2cv5flann20CompositeIndexParamsC2EiiiN7cvflann20flann_centers_init_tEf
libopencv_flann.so.4.2:_ZN2cv5flann33HierarchicalClusteringIndexParamsC1EiN7cvflann20flann_centers_init_tEii
libopencv_flann.so.4.2:_ZN2cv5flann33HierarchicalClusteringIndexParamsC2EiN7cvflann20flann_centers_init_tEii
libopencv_flann.so.4.2:_ZN2cv5flann5Index12radiusSearchERKNS_11_InputArrayERKNS_12_OutputArrayES7_diRKNS0_12SearchParamsE
libopencv_flann.so.4.2:_ZN2cv5flann5Index4loadERKNS_11_InputArrayERKNSt7__cxx1112basic_stringIcSt11char_traitsIcESaIcEEE
libopencv_flann.so.4.2:_ZN2cv5flann5Index5buildERKNS_11_InputArrayERKNS0_11IndexParamsEN7cvflann16flann_distance_tE
libopencv_flann.so.4.2:_ZN2cv5flann5Index7releaseEv
libopencv_flann.so.4.2:_ZN2cv5flann5Index9knnSearchERKNS_11_InputArrayERKNS_12_OutputArrayES7_iRKNS0_12SearchParamsE
libopencv_flann.so.4.2:_ZN2cv5flann5IndexC1ERKNS_11_InputArrayERKNS0_11IndexParamsEN7cvflann16flann_distance_tE
libopencv_flann.so.4.2:_ZN2cv5flann5IndexC1Ev
libopencv_flann.so.4.2:_ZN2cv5flann5IndexC2ERKNS_11_InputArrayERKNS0_11IndexParamsEN7cvflann16flann_distance_tE
libopencv_flann.so.4.2:_ZN2cv5flann5IndexC2Ev
libopencv_flann.so.4.2:_ZN2cv5flann5IndexD0Ev
libopencv_flann.so.4.2:_ZN2cv5flann5IndexD1Ev
libopencv_flann.so.4.2:_ZN2cv5flann5IndexD2Ev
libopencv_flann.so.4.2:_ZN7cvflann17set_distance_typeENS_16flann_distance_tEi
libopencv_flann.so.4.2:_ZN7cvflann19flann_distance_typeEv
libopencv_flann.so.4.2:_ZNK2cv5flann11IndexParams6getAllERSt6vectorINSt7__cxx1112basic_stringIcSt11char_traitsIcESaIcEEESaIS8_EERS2_INS0_14FlannIndexTypeESaISC_EESB_RS2_IdSaIdEE
libopencv_flann.so.4.2:_ZNK2cv5flann11IndexParams6getIntERKNSt7__cxx1112basic_stringIcSt11char_traitsIcESaIcEEEi
libopencv_flann.so.4.2:_ZNK2cv5flann11IndexParams9getDoubleERKNSt7__cxx1112basic_stringIcSt11char_traitsIcESaIcEEEd
libopencv_flann.so.4.2:_ZNK2cv5flann11IndexParams9getStringERKNSt7__cxx1112basic_stringIcSt11char_traitsIcESaIcEEES9_
libopencv_flann.so.4.2:_ZNK2cv5flann5Index11getDistanceEv
libopencv_flann.so.4.2:_ZNK2cv5flann5Index12getAlgorithmEv
libopencv_flann.so.4.2:_ZNK2cv5flann5Index4saveERKNSt7__cxx1112basic_stringIcSt11char_traitsIcESaIcEEE
libopencv_highgui.so.4.2:_ZN2cv10moveWindowERKNSt7__cxx1112basic_stringIcSt11char_traitsIcESaIcEEEii
libopencv_highgui.so.4.2:_ZN2cv10selectROIsERKNSt7__cxx1112basic_stringIcSt11char_traitsIcESaIcEEERKNS_11_InputArrayERSt6vectorINS_5Rect_IiEESaISD_EEbb
libopencv_highgui.so.4.2:_ZN2cv11namedWindowERKNSt7__cxx1112basic_stringIcSt11char_traitsIcESaIcEEEi
libopencv_highgui.so.4.2:_ZN2cv12createButtonERKNSt7__cxx1112basic_stringIcSt11char_traitsIcESaIcEEEPFviPvES8_ib
libopencv_highgui.so.4.2:_ZN2cv12resizeWindowERKNSt7__cxx1112basic_stringIcSt11char_traitsIcESaIcEEERKNS_5Size_IiEE
libopencv_highgui.so.4.2:_ZN2cv12resizeWindowERKNSt7__cxx1112basic_stringIcSt11char_traitsIcESaIcEEEii
libopencv_highgui.so.4.2:_ZN2cv12updateWindowERKNSt7__cxx1112basic_stringIcSt11char_traitsIcESaIcEEE
libopencv_highgui.so.4.2:_ZN2cv13destroyWindowERKNSt7__cxx1112basic_stringIcSt11char_traitsIcESaIcEEE
libopencv_highgui.so.4.2:_ZN2cv14createTrackbarERKNSt7__cxx1112basic_stringIcSt11char_traitsIcESaIcEEES7_PiiPFviPvES9_
libopencv_highgui.so.4.2:_ZN2cv14displayOverlayERKNSt7__cxx1112basic_stringIcSt11char_traitsIcESaIcEEES7_i
libopencv_highgui.so.4.2:_ZN2cv14getTrackbarPosERKNSt7__cxx1112basic_stringIcSt11char_traitsIcESaIcEEES7_
libopencv_highgui.so.4.2:_ZN2cv14setTrackbarMaxERKNSt7__cxx1112basic_stringIcSt11char_traitsIcESaIcEEES7_i
libopencv_highgui.so.4.2:_ZN2cv14setTrackbarMinERKNSt7__cxx1112basic_stringIcSt11char_traitsIcESaIcEEES7_i
libopencv_highgui.so.4.2:_ZN2cv14setTrackbarPosERKNSt7__cxx1112basic_stringIcSt11char_traitsIcESaIcEEES7_i
libopencv_highgui.so.4.2:_ZN2cv14setWindowTitleERKNSt7__cxx1112basic_stringIcSt11char_traitsIcESaIcEEES7_
libopencv_highgui.so.4.2:_ZN2cv16displayStatusBarERKNSt7__cxx1112basic_stringIcSt11char_traitsIcESaIcEEES7_i
libopencv_highgui.so.4.2:_ZN2cv16setMouseCallbackERKNSt7__cxx1112basic_stringIcSt11char_traitsIcESaIcEEEPFviiiiPvES8_
libopencv_highgui.so.4.2:_ZN2cv16setOpenGlContextERKNSt7__cxx1112basic_stringIcSt11char_traitsIcESaIcEEE
libopencv_highgui.so.4.2:_ZN2cv17destroyAllWindowsEv
libopencv_highgui.so.4.2:_ZN2cv17getWindowPropertyERKNSt7__cxx1112basic_stringIcSt11char_traitsIcESaIcEEEi
libopencv_highgui.so.4.2:_ZN2cv17setWindowPropertyERKNSt7__cxx1112basic_stringIcSt11char_traitsIcESaIcEEEid
libopencv_highgui.so.4.2:_ZN2cv17startWindowThreadEv
libopencv_highgui.so.4.2:_ZN2cv18getMouseWheelDeltaEi
libopencv_highgui.so.4.2:_ZN2cv18getWindowImageRectERKNSt7__cxx1112basic_stringIcSt11char_traitsIcESaIcEEE
libopencv_highgui.so.4.2:_ZN2cv20loadWindowParametersERKNSt7__cxx1112basic_stringIcSt11char_traitsIcESaIcEEE
libopencv_highgui.so.4.2:_ZN2cv20saveWindowParametersERKNSt7__cxx1112basic_stringIcSt11char_traitsIcESaIcEEE
libopencv_highgui.so.4.2:_ZN2cv21setOpenGlDrawCallbackERKNSt7__cxx1112basic_stringIcSt11char_traitsIcESaIcEEEPFvPvES8_
libopencv_highgui.so.4.2:_ZN2cv6fontQtERKNSt7__cxx1112basic_stringIcSt11char_traitsIcESaIcEEEiNS_7Scalar_IdEEiii
libopencv_highgui.so.4.2:_ZN2cv6imshowERKNSt7__cxx1112basic_stringIcSt11char_traitsIcESaIcEEERKNS_11_InputArrayE
libopencv_highgui.so.4.2:_ZN2cv6imshowERKNSt7__cxx1112basic_stringIcSt11char_traitsIcESaIcEEERKNS_3ogl9Texture2DE
libopencv_highgui.so.4.2:_ZN2cv7addTextERKNS_3MatERKNSt7__cxx1112basic_stringIcSt11char_traitsIcESaIcEEENS_6Point_IiEERKNS_6QtFontE
libopencv_highgui.so.4.2:_ZN2cv7addTextERKNS_3MatERKNSt7__cxx1112basic_stringIcSt11char_traitsIcESaIcEEENS_6Point_IiEESA_iNS_7Scalar_IdEEiii
libopencv_highgui.so.4.2:_ZN2cv7waitKeyEi
libopencv_highgui.so.4.2:_ZN2cv8stopLoopEv
libopencv_highgui.so.4.2:_ZN2cv9selectROIERKNS_11_InputArrayEbb
libopencv_highgui.so.4.2:_ZN2cv9selectROIERKNSt7__cxx1112basic_stringIcSt11char_traitsIcESaIcEEERKNS_11_InputArrayEbb
libopencv_highgui.so.4.2:_ZN2cv9startLoopEPFiiPPcEiS1_
libopencv_highgui.so.4.2:_ZN2cv9waitKeyExEi
libopencv_highgui.so.4.2:cvCreateTrackbar
libopencv_highgui.so.4.2:cvCreateTrackbar2
libopencv_highgui.so.4.2:cvDestroyAllWindows
libopencv_highgui.so.4.2:cvDestroyWindow
libopencv_highgui.so.4.2:cvGetTrackbarPos
libopencv_highgui.so.4.2:cvGetWindowHandle
libopencv_highgui.so.4.2:cvGetWindowImageRect
libopencv_highgui.so.4.2:cvGetWindowName
libopencv_highgui.so.4.2:cvGetWindowProperty
libopencv_highgui.so.4.2:cvInitSystem
libopencv_highgui.so.4.2:cvMoveWindow
libopencv_highgui.so.4.2:cvNamedWindow
libopencv_highgui.so.4.2:cvResizeWindow
libopencv_highgui.so.4.2:cvSetMouseCallback
libopencv_highgui.so.4.2:cvSetOpenGlContext
libopencv_highgui.so.4.2:cvSetOpenGlDrawCallback
libopencv_highgui.so.4.2:cvSetTrackbarMax
libopencv_highgui.so.4.2:cvSetTrackbarMin
libopencv_highgui.so.4.2:cvSetTrackbarPos
libopencv_highgui.so.4.2:cvSetWindowProperty
libopencv_highgui.so.4.2:cvShowImage
libopencv_highgui.so.4.2:cvStartWindowThread
libopencv_highgui.so.4.2:cvUpdateWindow
libopencv_highgui.so.4.2:cvWaitKey
libopencv_imgcodecs.so.4.2:_ZN2cv11imreadmultiERKNSt7__cxx1112basic_stringIcSt11char_traitsIcESaIcEEERSt6vectorINS_3MatESaIS9_EEi
libopencv_imgcodecs.so.4.2:_ZN2cv15haveImageReaderERKNSt7__cxx1112basic_stringIcSt11char_traitsIcESaIcEEE
libopencv_imgcodecs.so.4.2:_ZN2cv15haveImageWriterERKNSt7__cxx1112basic_stringIcSt11char_traitsIcESaIcEEE
libopencv_imgcodecs.so.4.2:_ZN2cv6imreadERKNSt7__cxx1112basic_stringIcSt11char_traitsIcESaIcEEEi
libopencv_imgcodecs.so.4.2:_ZN2cv7imwriteERKNSt7__cxx1112basic_stringIcSt11char_traitsIcESaIcEEERKNS_11_InputArrayERKSt6vectorIiSaIiEE
libopencv_imgcodecs.so.4.2:_ZN2cv8imdecodeERKNS_11_InputArrayEi
libopencv_imgcodecs.so.4.2:_ZN2cv8imdecodeERKNS_11_InputArrayEiPNS_3MatE
libopencv_imgcodecs.so.4.2:_ZN2cv8imencodeERKNSt7__cxx1112basic_stringIcSt11char_traitsIcESaIcEEERKNS_11_InputArrayERSt6vectorIhSaIhEERKSB_IiSaIiEE
libopencv_imgproc.so.4.2:_ZN2cv10HoughLinesERKNS_11_InputArrayERKNS_12_OutputArrayEddidddd
libopencv_imgproc.so.4.2:_ZN2cv10accumulateERKNS_11_InputArrayERKNS_17_InputOutputArrayES2_
libopencv_imgproc.so.4.2:_ZN2cv10convexHullERKNS_11_InputArrayERKNS_12_OutputArrayEbb
libopencv_imgproc.so.4.2:_ZN2cv10drawMarkerERKNS_17_InputOutputArrayENS_6Point_IiEERKNS_7Scalar_IdEEiiii
libopencv_imgproc.so.4.2:_ZN2cv10fitEllipseERKNS_11_InputArrayE
libopencv_imgproc.so.4.2:_ZN2cv10medianBlurERKNS_11_InputArrayERKNS_12_OutputArrayEi
libopencv_imgproc.so.4.2:_ZN2cv10warpAffineERKNS_11_InputArrayERKNS_12_OutputArrayES2_NS_5Size_IiEEiiRKNS_7Scalar_IdEE
libopencv_imgproc.so.4.2:_ZN2cv10wrapperEMDERKNS_11_InputArrayES2_iS2_NS_3PtrIfEERKNS_12_OutputArrayE
libopencv_imgproc.so.4.2:_ZN2cv11HoughLinesPERKNS_11_InputArrayERKNS_12_OutputArrayEddidd
libopencv_imgproc.so.4.2:_ZN2cv11arrowedLineERKNS_17_InputOutputArrayENS_6Point_IiEES4_RKNS_7Scalar_IdEEiiid
libopencv_imgproc.so.4.2:_ZN2cv11blendLinearERKNS_11_InputArrayES2_S2_S2_RKNS_12_OutputArrayE
libopencv_imgproc.so.4.2:_ZN2cv11compareHistERKNS_11_InputArrayES2_i
libopencv_imgproc.so.4.2:_ZN2cv11compareHistERKNS_9SparseMatES2_i
libopencv_imgproc.so.4.2:_ZN2cv11contourAreaERKNS_11_InputArrayEb
libopencv_imgproc.so.4.2:_ZN2cv11convertMapsERKNS_11_InputArrayES2_RKNS_12_OutputArrayES5_ib
libopencv_imgproc.so.4.2:_ZN2cv11createCLAHEEdNS_5Size_IiEE
libopencv_imgproc.so.4.2:_ZN2cv11demosaicingERKNS_11_InputArrayERKNS_12_OutputArrayEii
libopencv_imgproc.so.4.2:_ZN2cv11getTextSizeERKNSt7__cxx1112basic_stringIcSt11char_traitsIcESaIcEEEidiPi
libopencv_imgproc.so.4.2:_ZN2cv11linearPolarERKNS_11_InputArrayERKNS_12_OutputArrayENS_6Point_IfEEdi
libopencv_imgproc.so.4.2:_ZN2cv11matchShapesERKNS_11_InputArrayES2_id
libopencv_imgproc.so.4.2:_ZN2cv11minAreaRectERKNS_11_InputArrayE
libopencv_imgproc.so.4.2:_ZN2cv11sepFilter2DERKNS_11_InputArrayERKNS_12_OutputArrayEiS2_S2_NS_6Point_IiEEdi
libopencv_imgproc.so.4.2:_ZN2cv12GaussianBlurERKNS_11_InputArrayERKNS_12_OutputArrayENS_5Size_IiEEddi
libopencv_imgproc.so.4.2:_ZN2cv12HoughCirclesERKNS_11_InputArrayERKNS_12_OutputArrayEiddddii
libopencv_imgproc.so.4.2:_ZN2cv12LineIteratorC1ERKNS_3MatENS_6Point_IiEES5_ib
libopencv_imgproc.so.4.2:_ZN2cv12LineIteratorC2ERKNS_3MatENS_6Point_IiEES5_ib
libopencv_imgproc.so.4.2:_ZN2cv12approxPolyDPERKNS_11_InputArrayERKNS_12_OutputArrayEdb
libopencv_imgproc.so.4.2:_ZN2cv12boundingRectERKNS_11_InputArrayE
libopencv_imgproc.so.4.2:_ZN2cv12buildPyramidERKNS_11_InputArrayERKNS_12_OutputArrayEii
libopencv_imgproc.so.4.2:_ZN2cv12cornerHarrisERKNS_11_InputArrayERKNS_12_OutputArrayEiidi
libopencv_imgproc.so.4.2:_ZN2cv12cornerSubPixERKNS_11_InputArrayERKNS_17_InputOutputArrayENS_5Size_IiEES7_NS_12TermCriteriaE
libopencv_imgproc.so.4.2:_ZN2cv12drawContoursERKNS_17_InputOutputArrayERKNS_11_InputArrayEiRKNS_7Scalar_IdEEiiS5_iNS_6Point_IiEE
libopencv_imgproc.so.4.2:_ZN2cv12ellipse2PolyENS_6Point_IdEENS_5Size_IdEEiiiiRSt6vectorIS1_SaIS1_EE
libopencv_imgproc.so.4.2:_ZN2cv12ellipse2PolyENS_6Point_IiEENS_5Size_IiEEiiiiRSt6vectorIS1_SaIS1_EE
libopencv_imgproc.so.4.2:_ZN2cv12equalizeHistERKNS_11_InputArrayERKNS_12_OutputArrayE
libopencv_imgproc.so.4.2:_ZN2cv12findContoursERKNS_11_InputArrayERKNS_12_OutputArrayES5_iiNS_6Point_IiEE
libopencv_imgproc.so.4.2:_ZN2cv12findContoursERKNS_11_InputArrayERKNS_12_OutputArrayEiiNS_6Point_IiEE
libopencv_imgproc.so.4.2:_ZN2cv12morphologyExERKNS_11_InputArrayERKNS_12_OutputArrayEiS2_NS_6Point_IiEEiiRKNS_7Scalar_IdEE
libopencv_imgproc.so.4.2:_ZN2cv12sqrBoxFilterERKNS_11_InputArrayERKNS_12_OutputArrayEiNS_5Size_IiEENS_6Point_IiEEbi
libopencv_imgproc.so.4.2:_ZN2cv13applyColorMapERKNS_11_InputArrayERKNS_12_OutputArrayES2_
libopencv_imgproc.so.4.2:_ZN2cv13applyColorMapERKNS_11_InputArrayERKNS_12_OutputArrayEi
libopencv_imgproc.so.4.2:_ZN2cv13fitEllipseAMSERKNS_11_InputArrayE
libopencv_imgproc.so.4.2:_ZN2cv13getRectSubPixERKNS_11_InputArrayENS_5Size_IiEENS_6Point_IfEERKNS_12_OutputArrayEi
libopencv_imgproc.so.4.2:_ZN2cv13matchTemplateERKNS_11_InputArrayES2_RKNS_12_OutputArrayEiS2_
libopencv_imgproc.so.4.2:_ZN2cv14fillConvexPolyERKNS_17_InputOutputArrayEPKNS_6Point_IiEEiRKNS_7Scalar_IdEEii
libopencv_imgproc.so.4.2:_ZN2cv14fillConvexPolyERKNS_17_InputOutputArrayERKNS_11_InputArrayERKNS_7Scalar_IdEEii
libopencv_imgproc.so.4.2:_ZN2cv14getGaborKernelENS_5Size_IiEEdddddi
libopencv_imgproc.so.4.2:_ZN2cv14phaseCorrelateERKNS_11_InputArrayES2_S2_Pd
libopencv_imgproc.so.4.2:_ZN2cv15bilateralFilterERKNS_11_InputArrayERKNS_12_OutputArrayEiddi
libopencv_imgproc.so.4.2:_ZN2cv15calcBackProjectEPKNS_3MatEiPKiRKNS_11_InputArrayERKNS_12_OutputArrayEPPKfdb
libopencv_imgproc.so.4.2:_ZN2cv15calcBackProjectEPKNS_3MatEiPKiRKNS_9SparseMatERKNS_12_OutputArrayEPPKfdb
libopencv_imgproc.so.4.2:_ZN2cv15calcBackProjectERKNS_11_InputArrayERKSt6vectorIiSaIiEES2_RKNS_12_OutputArrayERKS3_IfSaIfEEd
libopencv_imgproc.so.4.2:_ZN2cv15getDerivKernelsERKNS_12_OutputArrayES2_iiibi
libopencv_imgproc.so.4.2:_ZN2cv15isContourConvexERKNS_11_InputArrayE
libopencv_imgproc.so.4.2:_ZN2cv15preCornerDetectERKNS_11_InputArrayERKNS_12_OutputArrayEii
libopencv_imgproc.so.4.2:_ZN2cv15spatialGradientERKNS_11_InputArrayERKNS_12_OutputArrayES5_ii
libopencv_imgproc.so.4.2:_ZN2cv15warpPerspectiveERKNS_11_InputArrayERKNS_12_OutputArrayES2_NS_5Size_IiEEiiRKNS_7Scalar_IdEE
libopencv_imgproc.so.4.2:_ZN2cv16accumulateSquareERKNS_11_InputArrayERKNS_17_InputOutputArrayES2_
libopencv_imgproc.so.4.2:_ZN2cv16convexityDefectsERKNS_11_InputArrayES2_RKNS_12_OutputArrayE
libopencv_imgproc.so.4.2:_ZN2cv16cvtColorTwoPlaneERKNS_11_InputArrayES2_RKNS_12_OutputArrayEi
libopencv_imgproc.so.4.2:_ZN2cv16fitEllipseDirectERKNS_11_InputArrayE
libopencv_imgproc.so.4.2:_ZN2cv16pointPolygonTestERKNS_11_InputArrayENS_6Point_IfEEb
libopencv_imgproc.so.4.2:_ZN2cv17accumulateProductERKNS_11_InputArrayES2_RKNS_17_InputOutputArrayES2_
libopencv_imgproc.so.4.2:_ZN2cv17adaptiveThresholdERKNS_11_InputArrayERKNS_12_OutputArrayEdiiid
libopencv_imgproc.so.4.2:_ZN2cv17cornerMinEigenValERKNS_11_InputArrayERKNS_12_OutputArrayEiii
libopencv_imgproc.so.4.2:_ZN2cv17distanceTransformERKNS_11_InputArrayERKNS_12_OutputArrayES5_iii
libopencv_imgproc.so.4.2:_ZN2cv17distanceTransformERKNS_11_InputArrayERKNS_12_OutputArrayEiii
libopencv_imgproc.so.4.2:_ZN2cv17getGaussianKernelEidi
libopencv_imgproc.so.4.2:_ZN2cv18HoughLinesPointSetERKNS_11_InputArrayERKNS_12_OutputArrayEiidddddd
libopencv_imgproc.so.4.2:_ZN2cv18accumulateWeightedERKNS_11_InputArrayERKNS_17_InputOutputArrayEdS2_
libopencv_imgproc.so.4.2:_ZN2cv18getAffineTransformEPKNS_6Point_IfEES3_
libopencv_imgproc.so.4.2:_ZN2cv18getAffineTransformERKNS_11_InputArrayES2_
libopencv_imgproc.so.4.2:_ZN2cv18minEnclosingCircleERKNS_11_InputArrayERNS_6Point_IfEERf
libopencv_imgproc.so.4.2:_ZN2cv19connectedComponentsERKNS_11_InputArrayERKNS_12_OutputArrayEii
libopencv_imgproc.so.4.2:_ZN2cv19connectedComponentsERKNS_11_InputArrayERKNS_12_OutputArrayEiii
libopencv_imgproc.so.4.2:_ZN2cv19createHanningWindowERKNS_12_OutputArrayENS_5Size_IiEEi
libopencv_imgproc.so.4.2:_ZN2cv19goodFeaturesToTrackERKNS_11_InputArrayERKNS_12_OutputArrayEiddS2_ibd
libopencv_imgproc.so.4.2:_ZN2cv19goodFeaturesToTrackERKNS_11_InputArrayERKNS_12_OutputArrayEiddS2_iibd
libopencv_imgproc.so.4.2:_ZN2cv20getRotationMatrix2D_ENS_6Point_IfEEdd
libopencv_imgproc.so.4.2:_ZN2cv20minEnclosingTriangleERKNS_11_InputArrayERKNS_12_OutputArrayE
libopencv_imgproc.so.4.2:_ZN2cv21getStructuringElementEiNS_5Size_IiEENS_6Point_IiEE
libopencv_imgproc.so.4.2:_ZN2cv21intersectConvexConvexERKNS_11_InputArrayES2_RKNS_12_OutputArrayEb
libopencv_imgproc.so.4.2:_ZN2cv21invertAffineTransformERKNS_11_InputArrayERKNS_12_OutputArrayE
libopencv_imgproc.so.4.2:_ZN2cv21pyrMeanShiftFilteringERKNS_11_InputArrayERKNS_12_OutputArrayEddiNS_12TermCriteriaE
libopencv_imgproc.so.4.2:_ZN2cv22cornerEigenValsAndVecsERKNS_11_InputArrayERKNS_12_OutputArrayEiii
libopencv_imgproc.so.4.2:_ZN2cv22createMorphologyFilterEiiRKNS_11_InputArrayENS_6Point_IiEEiiRKNS_7Scalar_IdEE
libopencv_imgproc.so.4.2:_ZN2cv22getFontScaleFromHeightEiii
libopencv_imgproc.so.4.2:_ZN2cv23getPerspectiveTransformEPKNS_6Point_IfEES3_i
libopencv_imgproc.so.4.2:_ZN2cv23getPerspectiveTransformERKNS_11_InputArrayES2_i
libopencv_imgproc.so.4.2:_ZN2cv25createLineSegmentDetectorEiddddddi
libopencv_imgproc.so.4.2:_ZN2cv26createGeneralizedHoughGuilEv
libopencv_imgproc.so.4.2:_ZN2cv28connectedComponentsWithStatsERKNS_11_InputArrayERKNS_12_OutputArrayES5_S5_ii
libopencv_imgproc.so.4.2:_ZN2cv28connectedComponentsWithStatsERKNS_11_InputArrayERKNS_12_OutputArrayES5_S5_iii
libopencv_imgproc.so.4.2:_ZN2cv28rotatedRectangleIntersectionERKNS_11RotatedRectES2_RKNS_12_OutputArrayE
libopencv_imgproc.so.4.2:_ZN2cv29createGeneralizedHoughBallardEv
libopencv_imgproc.so.4.2:_ZN2cv3EMDERKNS_11_InputArrayES2_iS2_PfRKNS_12_OutputArrayE
libopencv_imgproc.so.4.2:_ZN2cv3hal10warpAffineEiPKhmiiPhmiiPKdiiS5_
libopencv_imgproc.so.4.2:_ZN2cv3hal11SepFilter2D6createEiiiPhiS2_iiidi
libopencv_imgproc.so.4.2:_ZN2cv3hal11cvtBGRtoBGREPKhmPhmiiiiib
libopencv_imgproc.so.4.2:_ZN2cv3hal11cvtBGRtoHSVEPKhmPhmiiiibbb
libopencv_imgproc.so.4.2:_ZN2cv3hal11cvtBGRtoLabEPKhmPhmiiiibbb
libopencv_imgproc.so.4.2:_ZN2cv3hal11cvtBGRtoXYZEPKhmPhmiiiib
libopencv_imgproc.so.4.2:_ZN2cv3hal11cvtBGRtoYUVEPKhmPhmiiiibb
libopencv_imgproc.so.4.2:_ZN2cv3hal11cvtHSVtoBGREPKhmPhmiiiibbb
libopencv_imgproc.so.4.2:_ZN2cv3hal11cvtLabtoBGREPKhmPhmiiiibbb
libopencv_imgproc.so.4.2:_ZN2cv3hal11cvtXYZtoBGREPKhmPhmiiiib
libopencv_imgproc.so.4.2:_ZN2cv3hal11cvtYUVtoBGREPKhmPhmiiiibb
libopencv_imgproc.so.4.2:_ZN2cv3hal11sepFilter2DEiiiPhmS1_miiiiiiS1_iS1_iiidi
libopencv_imgproc.so.4.2:_ZN2cv3hal12cvtBGRtoGrayEPKhmPhmiiiib
libopencv_imgproc.so.4.2:_ZN2cv3hal12cvtGraytoBGREPKhmPhmiiii
libopencv_imgproc.so.4.2:_ZN2cv3hal14cvtBGR5x5toBGREPKhmPhmiiibi
libopencv_imgproc.so.4.2:_ZN2cv3hal14cvtBGRtoBGR5x5EPKhmPhmiiibi
libopencv_imgproc.so.4.2:_ZN2cv3hal15cvtBGR5x5toGrayEPKhmPhmiii
libopencv_imgproc.so.4.2:_ZN2cv3hal15cvtGraytoBGR5x5EPKhmPhmiii
libopencv_imgproc.so.4.2:_ZN2cv3hal15warpPerspectiveEiPKhmiiPhmiiPKdiiS5_
libopencv_imgproc.so.4.2:_ZN2cv3hal19cvtBGRtoTwoPlaneYUVEPKhmPhS3_miiibi
libopencv_imgproc.so.4.2:_ZN2cv3hal19cvtOnePlaneYUVtoBGREPKhmPhmiiibii
libopencv_imgproc.so.4.2:_ZN2cv3hal19cvtTwoPlaneYUVtoBGREPKhS2_mPhmiiibi
libopencv_imgproc.so.4.2:_ZN2cv3hal19cvtTwoPlaneYUVtoBGREPKhmPhmiiibi
libopencv_imgproc.so.4.2:_ZN2cv3hal21cvtBGRtoThreePlaneYUVEPKhmPhmiiibi
libopencv_imgproc.so.4.2:_ZN2cv3hal21cvtThreePlaneYUVtoBGREPKhmPhmiiibi
libopencv_imgproc.so.4.2:_ZN2cv3hal23cvtMultipliedRGBAtoRGBAEPKhmPhmii
libopencv_imgproc.so.4.2:_ZN2cv3hal23cvtRGBAtoMultipliedRGBAEPKhmPhmii
libopencv_imgproc.so.4.2:_ZN2cv3hal5Morph6createEiiiiiiPhmiiiiiPKdibb
libopencv_imgproc.so.4.2:_ZN2cv3hal5morphEiiiPhmS1_miiiiiiiiiiiS1_miiiiiPKdib
libopencv_imgproc.so.4.2:_ZN2cv3hal6resizeEiPKhmiiPhmiiddi
libopencv_imgproc.so.4.2:_ZN2cv3hal8Filter2D6createEPhmiiiiiiiidiibb
libopencv_imgproc.so.4.2:_ZN2cv3hal8filter2DEiiiPhmS1_miiiiiiS1_miiiidib
libopencv_imgproc.so.4.2:_ZN2cv3hal8integralEiiiPKhmPhmS3_mS3_miii
libopencv_imgproc.so.4.2:_ZN2cv4blurERKNS_11_InputArrayERKNS_12_OutputArrayENS_5Size_IiEENS_6Point_IiEEi
libopencv_imgproc.so.4.2:_ZN2cv4lineERKNS_17_InputOutputArrayENS_6Point_IiEES4_RKNS_7Scalar_IdEEiii
libopencv_imgproc.so.4.2:_ZN2cv5CannyERKNS_11_InputArrayERKNS_12_OutputArrayEddib
libopencv_imgproc.so.4.2:_ZN2cv5CannyERKNS_11_InputArrayES2_RKNS_12_OutputArrayEddb
libopencv_imgproc.so.4.2:_ZN2cv5SobelERKNS_11_InputArrayERKNS_12_OutputArrayEiiiiddi
libopencv_imgproc.so.4.2:_ZN2cv5erodeERKNS_11_InputArrayERKNS_12_OutputArrayES2_NS_6Point_IiEEiiRKNS_7Scalar_IdEE
libopencv_imgproc.so.4.2:_ZN2cv5pyrUpERKNS_11_InputArrayERKNS_12_OutputArrayERKNS_5Size_IiEEi
libopencv_imgproc.so.4.2:_ZN2cv5remapERKNS_11_InputArrayERKNS_12_OutputArrayES2_S2_iiRKNS_7Scalar_IdEE
libopencv_imgproc.so.4.2:_ZN2cv6ScharrERKNS_11_InputArrayERKNS_12_OutputArrayEiiiddi
libopencv_imgproc.so.4.2:_ZN2cv6circleERKNS_17_InputOutputArrayENS_6Point_IiEEiRKNS_7Scalar_IdEEiii
libopencv_imgproc.so.4.2:_ZN2cv6dilateERKNS_11_InputArrayERKNS_12_OutputArrayES2_NS_6Point_IiEEiiRKNS_7Scalar_IdEE
libopencv_imgproc.so.4.2:_ZN2cv6resizeERKNS_11_InputArrayERKNS_12_OutputArrayENS_5Size_IiEEddi
libopencv_imgproc.so.4.2:_ZN2cv7MomentsC1Edddddddddd
libopencv_imgproc.so.4.2:_ZN2cv7MomentsC1Ev
libopencv_imgproc.so.4.2:_ZN2cv7MomentsC2Edddddddddd
libopencv_imgproc.so.4.2:_ZN2cv7MomentsC2Ev
libopencv_imgproc.so.4.2:_ZN2cv7ellipseERKNS_17_InputOutputArrayENS_6Point_IiEENS_5Size_IiEEdddRKNS_7Scalar_IdEEiii
libopencv_imgproc.so.4.2:_ZN2cv7ellipseERKNS_17_InputOutputArrayERKNS_11RotatedRectERKNS_7Scalar_IdEEii
libopencv_imgproc.so.4.2:_ZN2cv7fitLineERKNS_11_InputArrayERKNS_12_OutputArrayEiddd
libopencv_imgproc.so.4.2:_ZN2cv7grabCutERKNS_11_InputArrayERKNS_17_InputOutputArrayENS_5Rect_IiEES5_S5_ii
libopencv_imgproc.so.4.2:_ZN2cv7momentsERKNS_11_InputArrayEb
libopencv_imgproc.so.4.2:_ZN2cv7putTextERKNS_17_InputOutputArrayERKNSt7__cxx1112basic_stringIcSt11char_traitsIcESaIcEEENS_6Point_IiEEidNS_7Scalar_IdEEiib
libopencv_imgproc.so.4.2:_ZN2cv7pyrDownERKNS_11_InputArrayERKNS_12_OutputArrayERKNS_5Size_IiEEi
libopencv_imgproc.so.4.2:_ZN2cv8Subdiv2D10deleteEdgeEi
libopencv_imgproc.so.4.2:_ZN2cv8Subdiv2D11calcVoronoiEv
libopencv_imgproc.so.4.2:_ZN2cv8Subdiv2D11deletePointEi
libopencv_imgproc.so.4.2:_ZN2cv8Subdiv2D11findNearestENS_6Point_IfEEPS2_
libopencv_imgproc.so.4.2:_ZN2cv8Subdiv2D12clearVoronoiEv
libopencv_imgproc.so.4.2:_ZN2cv8Subdiv2D12connectEdgesEii
libopencv_imgproc.so.4.2:_ZN2cv8Subdiv2D12initDelaunayENS_5Rect_IiEE
libopencv_imgproc.so.4.2:_ZN2cv8Subdiv2D13setEdgePointsEiii
libopencv_imgproc.so.4.2:_ZN2cv8Subdiv2D19getVoronoiFacetListERKSt6vectorIiSaIiEERS1_IS1_INS_6Point_IfEESaIS7_EESaIS9_EERS9_
libopencv_imgproc.so.4.2:_ZN2cv8Subdiv2D6VertexC1ENS_6Point_IfEEbi
libopencv_imgproc.so.4.2:_ZN2cv8Subdiv2D6VertexC1Ev
libopencv_imgproc.so.4.2:_ZN2cv8Subdiv2D6VertexC2ENS_6Point_IfEEbi
libopencv_imgproc.so.4.2:_ZN2cv8Subdiv2D6VertexC2Ev
libopencv_imgproc.so.4.2:_ZN2cv8Subdiv2D6insertENS_6Point_IfEE
libopencv_imgproc.so.4.2:_ZN2cv8Subdiv2D6insertERKSt6vectorINS_6Point_IfEESaIS3_EE
libopencv_imgproc.so.4.2:_ZN2cv8Subdiv2D6locateENS_6Point_IfEERiS3_
libopencv_imgproc.so.4.2:_ZN2cv8Subdiv2D6spliceEii
libopencv_imgproc.so.4.2:_ZN2cv8Subdiv2D7newEdgeEv
libopencv_imgproc.so.4.2:_ZN2cv8Subdiv2D8QuadEdgeC1Ei
libopencv_imgproc.so.4.2:_ZN2cv8Subdiv2D8QuadEdgeC1Ev
libopencv_imgproc.so.4.2:_ZN2cv8Subdiv2D8QuadEdgeC2Ei
libopencv_imgproc.so.4.2:_ZN2cv8Subdiv2D8QuadEdgeC2Ev
libopencv_imgproc.so.4.2:_ZN2cv8Subdiv2D8newPointENS_6Point_IfEEbi
libopencv_imgproc.so.4.2:_ZN2cv8Subdiv2D9swapEdgesEi
libopencv_imgproc.so.4.2:_ZN2cv8Subdiv2DC1ENS_5Rect_IiEE
libopencv_imgproc.so.4.2:_ZN2cv8Subdiv2DC1Ev
libopencv_imgproc.so.4.2:_ZN2cv8Subdiv2DC2ENS_5Rect_IiEE
libopencv_imgproc.so.4.2:_ZN2cv8Subdiv2DC2Ev
libopencv_imgproc.so.4.2:_ZN2cv8calcHistEPKNS_3MatEiPKiRKNS_11_InputArrayERKNS_12_OutputArrayEiS4_PPKfbb
libopencv_imgproc.so.4.2:_ZN2cv8calcHistEPKNS_3MatEiPKiRKNS_11_InputArrayERNS_9SparseMatEiS4_PPKfbb
libopencv_imgproc.so.4.2:_ZN2cv8calcHistERKNS_11_InputArrayERKSt6vectorIiSaIiEES2_RKNS_12_OutputArrayES7_RKS3_IfSaIfEEb
libopencv_imgproc.so.4.2:_ZN2cv8clipLineENS_5Rect_IiEERNS_6Point_IiEES4_
libopencv_imgproc.so.4.2:_ZN2cv8clipLineENS_5Size_IiEERNS_6Point_IiEES4_
libopencv_imgproc.so.4.2:_ZN2cv8clipLineENS_5Size_IlEERNS_6Point_IlEES4_
libopencv_imgproc.so.4.2:_ZN2cv8cvtColorERKNS_11_InputArrayERKNS_12_OutputArrayEii
libopencv_imgproc.so.4.2:_ZN2cv8fillPolyERKNS_17_InputOutputArrayEPPKNS_6Point_IiEEPKiiRKNS_7Scalar_IdEEiiS4_
libopencv_imgproc.so.4.2:_ZN2cv8fillPolyERKNS_17_InputOutputArrayERKNS_11_InputArrayERKNS_7Scalar_IdEEiiNS_6Point_IiEE
libopencv_imgproc.so.4.2:_ZN2cv8filter2DERKNS_11_InputArrayERKNS_12_OutputArrayEiS2_NS_6Point_IiEEdi
libopencv_imgproc.so.4.2:_ZN2cv8integralERKNS_11_InputArrayERKNS_12_OutputArrayES5_S5_ii
libopencv_imgproc.so.4.2:_ZN2cv8integralERKNS_11_InputArrayERKNS_12_OutputArrayES5_ii
libopencv_imgproc.so.4.2:_ZN2cv8integralERKNS_11_InputArrayERKNS_12_OutputArrayEi
libopencv_imgproc.so.4.2:_ZN2cv8logPolarERKNS_11_InputArrayERKNS_12_OutputArrayENS_6Point_IfEEdi
libopencv_imgproc.so.4.2:_ZN2cv9HuMomentsERKNS_7MomentsEPd
libopencv_imgproc.so.4.2:_ZN2cv9HuMomentsERKNS_7MomentsERKNS_12_OutputArrayE
libopencv_imgproc.so.4.2:_ZN2cv9LaplacianERKNS_11_InputArrayERKNS_12_OutputArrayEiiddi
libopencv_imgproc.so.4.2:_ZN2cv9arcLengthERKNS_11_InputArrayEb
libopencv_imgproc.so.4.2:_ZN2cv9boxFilterERKNS_11_InputArrayERKNS_12_OutputArrayEiNS_5Size_IiEENS_6Point_IiEEbi
libopencv_imgproc.so.4.2:_ZN2cv9boxPointsENS_11RotatedRectERKNS_12_OutputArrayE
libopencv_imgproc.so.4.2:_ZN2cv9floodFillERKNS_17_InputOutputArrayENS_6Point_IiEENS_7Scalar_IdEEPNS_5Rect_IiEES6_S6_i
libopencv_imgproc.so.4.2:_ZN2cv9floodFillERKNS_17_InputOutputArrayES2_NS_6Point_IiEENS_7Scalar_IdEEPNS_5Rect_IiEES6_S6_i
libopencv_imgproc.so.4.2:_ZN2cv9polylinesERKNS_17_InputOutputArrayEPKPKNS_6Point_IiEEPKiibRKNS_7Scalar_IdEEiii
libopencv_imgproc.so.4.2:_ZN2cv9polylinesERKNS_17_InputOutputArrayERKNS_11_InputArrayEbRKNS_7Scalar_IdEEiii
libopencv_imgproc.so.4.2:_ZN2cv9rectangleERKNS_17_InputOutputArrayENS_5Rect_IiEERKNS_7Scalar_IdEEiii
libopencv_imgproc.so.4.2:_ZN2cv9rectangleERKNS_17_InputOutputArrayENS_6Point_IiEES4_RKNS_7Scalar_IdEEiii
libopencv_imgproc.so.4.2:_ZN2cv9thresholdERKNS_11_InputArrayERKNS_12_OutputArrayEddi
libopencv_imgproc.so.4.2:_ZN2cv9warpPolarERKNS_11_InputArrayERKNS_12_OutputArrayENS_5Size_IiEENS_6Point_IfEEdi
libopencv_imgproc.so.4.2:_ZN2cv9watershedERKNS_11_InputArrayERKNS_17_InputOutputArrayE
libopencv_imgproc.so.4.2:_ZNK2cv8Subdiv2D10rotateEdgeEii
libopencv_imgproc.so.4.2:_ZNK2cv8Subdiv2D11checkSubdivEv
libopencv_imgproc.so.4.2:_ZNK2cv8Subdiv2D11getEdgeListERSt6vectorINS_3VecIfLi4EEESaIS3_EE
libopencv_imgproc.so.4.2:_ZNK2cv8Subdiv2D15getTriangleListERSt6vectorINS_3VecIfLi6EEESaIS3_EE
libopencv_imgproc.so.4.2:_ZNK2cv8Subdiv2D18getLeadingEdgeListERSt6vectorIiSaIiEE
libopencv_imgproc.so.4.2:_ZNK2cv8Subdiv2D6Vertex6isfreeEv
libopencv_imgproc.so.4.2:_ZNK2cv8Subdiv2D6Vertex9isvirtualEv
libopencv_imgproc.so.4.2:_ZNK2cv8Subdiv2D7edgeDstEiPNS_6Point_IfEE
libopencv_imgproc.so.4.2:_ZNK2cv8Subdiv2D7edgeOrgEiPNS_6Point_IfEE
libopencv_imgproc.so.4.2:_ZNK2cv8Subdiv2D7getEdgeEii
libopencv_imgproc.so.4.2:_ZNK2cv8Subdiv2D7symEdgeEi
libopencv_imgproc.so.4.2:_ZNK2cv8Subdiv2D8QuadEdge6isfreeEv
libopencv_imgproc.so.4.2:_ZNK2cv8Subdiv2D8nextEdgeEi
libopencv_imgproc.so.4.2:_ZNK2cv8Subdiv2D9getVertexEiPi
libopencv_imgproc.so.4.2:_ZNK2cv8Subdiv2D9isRightOfENS_6Point_IfEEi
libopencv_imgproc.so.4.2:cv2DRotationMatrix
libopencv_imgproc.so.4.2:cvAcc
libopencv_imgproc.so.4.2:cvAdaptiveThreshold
libopencv_imgproc.so.4.2:cvApproxChains
libopencv_imgproc.so.4.2:cvApproxPoly
libopencv_imgproc.so.4.2:cvArcLength
libopencv_imgproc.so.4.2:cvBoundingRect
libopencv_imgproc.so.4.2:cvBoxPoints
libopencv_imgproc.so.4.2:cvCalcArrBackProject
libopencv_imgproc.so.4.2:cvCalcArrBackProjectPatch
libopencv_imgproc.so.4.2:cvCalcArrHist
libopencv_imgproc.so.4.2:cvCalcBayesianProb
libopencv_imgproc.so.4.2:cvCalcEMD2
libopencv_imgproc.so.4.2:cvCalcProbDensity
libopencv_imgproc.so.4.2:cvCanny
libopencv_imgproc.so.4.2:cvCheckContourConvexity
libopencv_imgproc.so.4.2:cvCircle
libopencv_imgproc.so.4.2:cvClearHist
libopencv_imgproc.so.4.2:cvClipLine
libopencv_imgproc.so.4.2:cvColorToScalar
libopencv_imgproc.so.4.2:cvCompareHist
libopencv_imgproc.so.4.2:cvContourArea
libopencv_imgproc.so.4.2:cvConvertMaps
libopencv_imgproc.so.4.2:cvConvexHull2
libopencv_imgproc.so.4.2:cvConvexityDefects
libopencv_imgproc.so.4.2:cvCopyHist
libopencv_imgproc.so.4.2:cvCopyMakeBorder
libopencv_imgproc.so.4.2:cvCornerEigenValsAndVecs
libopencv_imgproc.so.4.2:cvCornerHarris
libopencv_imgproc.so.4.2:cvCornerMinEigenVal
libopencv_imgproc.so.4.2:cvCreateHist
libopencv_imgproc.so.4.2:cvCreatePyramid
libopencv_imgproc.so.4.2:cvCreateStructuringElementEx
libopencv_imgproc.so.4.2:cvCvtColor
libopencv_imgproc.so.4.2:cvDilate
libopencv_imgproc.so.4.2:cvDistTransform
libopencv_imgproc.so.4.2:cvDrawContours
libopencv_imgproc.so.4.2:cvEllipse
libopencv_imgproc.so.4.2:cvEllipse2Poly
libopencv_imgproc.so.4.2:cvEndFindContours
libopencv_imgproc.so.4.2:cvEqualizeHist
libopencv_imgproc.so.4.2:cvErode
libopencv_imgproc.so.4.2:cvFillConvexPoly
libopencv_imgproc.so.4.2:cvFillPoly
libopencv_imgproc.so.4.2:cvFilter2D
libopencv_imgproc.so.4.2:cvFindContours
libopencv_imgproc.so.4.2:cvFindCornerSubPix
libopencv_imgproc.so.4.2:cvFindNextContour
libopencv_imgproc.so.4.2:cvFitEllipse2
libopencv_imgproc.so.4.2:cvFitLine
libopencv_imgproc.so.4.2:cvFloodFill
libopencv_imgproc.so.4.2:cvGetAffineTransform
libopencv_imgproc.so.4.2:cvGetCentralMoment
libopencv_imgproc.so.4.2:cvGetHuMoments
libopencv_imgproc.so.4.2:cvGetMinMaxHistValue
libopencv_imgproc.so.4.2:cvGetNormalizedCentralMoment
libopencv_imgproc.so.4.2:cvGetPerspectiveTransform
libopencv_imgproc.so.4.2:cvGetQuadrangleSubPix
libopencv_imgproc.so.4.2:cvGetRectSubPix
libopencv_imgproc.so.4.2:cvGetSpatialMoment
libopencv_imgproc.so.4.2:cvGetTextSize
libopencv_imgproc.so.4.2:cvGoodFeaturesToTrack
libopencv_imgproc.so.4.2:cvHoughCircles
libopencv_imgproc.so.4.2:cvHoughLines2
libopencv_imgproc.so.4.2:cvInitFont
libopencv_imgproc.so.4.2:cvInitLineIterator
libopencv_imgproc.so.4.2:cvIntegral
libopencv_imgproc.so.4.2:cvLaplace
libopencv_imgproc.so.4.2:cvLine
libopencv_imgproc.so.4.2:cvLinearPolar
libopencv_imgproc.so.4.2:cvLogPolar
libopencv_imgproc.so.4.2:cvMakeHistHeaderForArray
libopencv_imgproc.so.4.2:cvMatchShapes
libopencv_imgproc.so.4.2:cvMatchTemplate
libopencv_imgproc.so.4.2:cvMaxRect
libopencv_imgproc.so.4.2:cvMinAreaRect2
libopencv_imgproc.so.4.2:cvMinEnclosingCircle
libopencv_imgproc.so.4.2:cvMoments
libopencv_imgproc.so.4.2:cvMorphologyEx
libopencv_imgproc.so.4.2:cvMultiplyAcc
libopencv_imgproc.so.4.2:cvNormalizeHist
libopencv_imgproc.so.4.2:cvPointPolygonTest
libopencv_imgproc.so.4.2:cvPointSeqFromMat
libopencv_imgproc.so.4.2:cvPolyLine
libopencv_imgproc.so.4.2:cvPreCornerDetect
libopencv_imgproc.so.4.2:cvPutText
libopencv_imgproc.so.4.2:cvPyrDown
libopencv_imgproc.so.4.2:cvPyrMeanShiftFiltering
libopencv_imgproc.so.4.2:cvPyrUp
libopencv_imgproc.so.4.2:cvReadChainPoint
libopencv_imgproc.so.4.2:cvRectangle
libopencv_imgproc.so.4.2:cvRectangleR
libopencv_imgproc.so.4.2:cvReleaseHist
libopencv_imgproc.so.4.2:cvReleasePyramid
libopencv_imgproc.so.4.2:cvReleaseStructuringElement
libopencv_imgproc.so.4.2:cvRemap
libopencv_imgproc.so.4.2:cvResize
libopencv_imgproc.so.4.2:cvRunningAvg
libopencv_imgproc.so.4.2:cvSampleLine
libopencv_imgproc.so.4.2:cvSetHistBinRanges
libopencv_imgproc.so.4.2:cvSmooth
libopencv_imgproc.so.4.2:cvSobel
libopencv_imgproc.so.4.2:cvSquareAcc
libopencv_imgproc.so.4.2:cvStartFindContours
libopencv_imgproc.so.4.2:cvStartReadChainPoints
libopencv_imgproc.so.4.2:cvSubstituteContour
libopencv_imgproc.so.4.2:cvThreshHist
libopencv_imgproc.so.4.2:cvThreshold
libopencv_imgproc.so.4.2:cvWarpAffine
libopencv_imgproc.so.4.2:cvWarpPerspective
libopencv_imgproc.so.4.2:cvWatershed
libopencv_ml.so.4.2:_ZN2cv2ml12randMVNormalERKNS_11_InputArrayES3_iRKNS_12_OutputArrayE
libopencv_ml.so.4.2:_ZN2cv2ml18LogisticRegression4loadERKNSt7__cxx1112basic_stringIcSt11char_traitsIcESaIcEEES9_
libopencv_ml.so.4.2:_ZN2cv2ml18LogisticRegression6createEv
libopencv_ml.so.4.2:_ZN2cv2ml21NormalBayesClassifier4loadERKNSt7__cxx1112basic_stringIcSt11char_traitsIcESaIcEEES9_
libopencv_ml.so.4.2:_ZN2cv2ml21NormalBayesClassifier6createEv
libopencv_ml.so.4.2:_ZN2cv2ml2EM4loadERKNSt7__cxx1112basic_stringIcSt11char_traitsIcESaIcEEES9_
libopencv_ml.so.4.2:_ZN2cv2ml2EM6createEv
libopencv_ml.so.4.2:_ZN2cv2ml30createConcentricSpheresTestSetEiiiRKNS_12_OutputArrayES3_
libopencv_ml.so.4.2:_ZN2cv2ml3SVM14getDefaultGridEi
libopencv_ml.so.4.2:_ZN2cv2ml3SVM17getDefaultGridPtrEi
libopencv_ml.so.4.2:_ZN2cv2ml3SVM4loadERKNSt7__cxx1112basic_stringIcSt11char_traitsIcESaIcEEE
libopencv_ml.so.4.2:_ZN2cv2ml3SVM6createEv
libopencv_ml.so.4.2:_ZN2cv2ml5Boost4loadERKNSt7__cxx1112basic_stringIcSt11char_traitsIcESaIcEEES9_
libopencv_ml.so.4.2:_ZN2cv2ml5Boost6createEv
libopencv_ml.so.4.2:_ZN2cv2ml6DTrees4NodeC1Ev
libopencv_ml.so.4.2:_ZN2cv2ml6DTrees4NodeC2Ev
libopencv_ml.so.4.2:_ZN2cv2ml6DTrees4loadERKNSt7__cxx1112basic_stringIcSt11char_traitsIcESaIcEEES9_
libopencv_ml.so.4.2:_ZN2cv2ml6DTrees5SplitC1Ev
libopencv_ml.so.4.2:_ZN2cv2ml6DTrees5SplitC2Ev
libopencv_ml.so.4.2:_ZN2cv2ml6DTrees6createEv
libopencv_ml.so.4.2:_ZN2cv2ml6KDTree5buildERKNS_11_InputArrayES4_b
libopencv_ml.so.4.2:_ZN2cv2ml6KDTree5buildERKNS_11_InputArrayEb
libopencv_ml.so.4.2:_ZN2cv2ml6KDTreeC1ERKNS_11_InputArrayES4_b
libopencv_ml.so.4.2:_ZN2cv2ml6KDTreeC1ERKNS_11_InputArrayEb
libopencv_ml.so.4.2:_ZN2cv2ml6KDTreeC1Ev
libopencv_ml.so.4.2:_ZN2cv2ml6KDTreeC2ERKNS_11_InputArrayES4_b
libopencv_ml.so.4.2:_ZN2cv2ml6KDTreeC2ERKNS_11_InputArrayEb
libopencv_ml.so.4.2:_ZN2cv2ml6KDTreeC2Ev
libopencv_ml.so.4.2:_ZN2cv2ml6RTrees4loadERKNSt7__cxx1112basic_stringIcSt11char_traitsIcESaIcEEES9_
libopencv_ml.so.4.2:_ZN2cv2ml6RTrees6createEv
libopencv_ml.so.4.2:_ZN2cv2ml6SVMSGD4loadERKNSt7__cxx1112basic_stringIcSt11char_traitsIcESaIcEEES9_
libopencv_ml.so.4.2:_ZN2cv2ml6SVMSGD6createEv
libopencv_ml.so.4.2:_ZN2cv2ml7ANN_MLP4loadERKNSt7__cxx1112basic_stringIcSt11char_traitsIcESaIcEEE
libopencv_ml.so.4.2:_ZN2cv2ml7ANN_MLP6createEv
libopencv_ml.so.4.2:_ZN2cv2ml8KNearest4loadERKNSt7__cxx1112basic_stringIcSt11char_traitsIcESaIcEEE
libopencv_ml.so.4.2:_ZN2cv2ml8KNearest6createEv
libopencv_ml.so.4.2:_ZN2cv2ml9ParamGrid6createEddd
libopencv_ml.so.4.2:_ZN2cv2ml9ParamGridC1Eddd
libopencv_ml.so.4.2:_ZN2cv2ml9ParamGridC1Ev
libopencv_ml.so.4.2:_ZN2cv2ml9ParamGridC2Eddd
libopencv_ml.so.4.2:_ZN2cv2ml9ParamGridC2Ev
libopencv_ml.so.4.2:_ZN2cv2ml9StatModel5trainERKNS_11_InputArrayEiS4_
libopencv_ml.so.4.2:_ZN2cv2ml9StatModel5trainERKNS_3PtrINS0_9TrainDataEEEi
libopencv_ml.so.4.2:_ZN2cv2ml9TrainData11loadFromCSVERKNSt7__cxx1112basic_stringIcSt11char_traitsIcESaIcEEEiiiS9_cc
libopencv_ml.so.4.2:_ZN2cv2ml9TrainData12getSubMatrixERKNS_3MatES4_i
libopencv_ml.so.4.2:_ZN2cv2ml9TrainData12getSubVectorERKNS_3MatES4_
libopencv_ml.so.4.2:_ZN2cv2ml9TrainData6createERKNS_11_InputArrayEiS4_S4_S4_S4_S4_
libopencv_ml.so.4.2:_ZN2cv2ml9TrainDataD0Ev
libopencv_ml.so.4.2:_ZN2cv2ml9TrainDataD1Ev
libopencv_ml.so.4.2:_ZN2cv2ml9TrainDataD2Ev
libopencv_ml.so.4.2:_ZNK2cv2ml6KDTree11findNearestERKNS_11_InputArrayEiiRKNS_12_OutputArrayES7_S7_S7_
libopencv_ml.so.4.2:_ZNK2cv2ml6KDTree14findOrthoRangeERKNS_11_InputArrayES4_RKNS_12_OutputArrayES7_S7_
libopencv_ml.so.4.2:_ZNK2cv2ml6KDTree4dimsEv
libopencv_ml.so.4.2:_ZNK2cv2ml6KDTree8getPointEiPi
libopencv_ml.so.4.2:_ZNK2cv2ml6KDTree9getPointsERKNS_11_InputArrayERKNS_12_OutputArrayES7_
libopencv_ml.so.4.2:_ZNK2cv2ml9StatModel11getVarCountEv
libopencv_ml.so.4.2:_ZNK2cv2ml9StatModel5emptyEv
libopencv_ml.so.4.2:_ZNK2cv2ml9StatModel9calcErrorERKNS_3PtrINS0_9TrainDataEEEbRKNS_12_OutputArrayE
libopencv_objdetect.so.4.2:_ZN2cv13HOGDescriptor14setSVMDetectorERKNS_11_InputArrayE
libopencv_objdetect.so.4.2:_ZN2cv13HOGDescriptor24getDaimlerPeopleDetectorEv
libopencv_objdetect.so.4.2:_ZN2cv13HOGDescriptor24getDefaultPeopleDetectorEv
libopencv_objdetect.so.4.2:_ZN2cv13HOGDescriptor4loadERKNSt7__cxx1112basic_stringIcSt11char_traitsIcESaIcEEES8_
libopencv_objdetect.so.4.2:_ZN2cv13HOGDescriptor4readERNS_8FileNodeE
libopencv_objdetect.so.4.2:_ZN2cv14QRCodeDetector15detectAndDecodeB5cxx11ERKNS_11_InputArrayERKNS_12_OutputArrayES6_
libopencv_objdetect.so.4.2:_ZN2cv14QRCodeDetector6decodeB5cxx11ERKNS_11_InputArrayES3_RKNS_12_OutputArrayE
libopencv_objdetect.so.4.2:_ZN2cv14QRCodeDetector7setEpsXEd
libopencv_objdetect.so.4.2:_ZN2cv14QRCodeDetector7setEpsYEd
libopencv_objdetect.so.4.2:_ZN2cv14QRCodeDetectorC1Ev
libopencv_objdetect.so.4.2:_ZN2cv14QRCodeDetectorC2Ev
libopencv_objdetect.so.4.2:_ZN2cv14QRCodeDetectorD1Ev
libopencv_objdetect.so.4.2:_ZN2cv14QRCodeDetectorD2Ev
libopencv_objdetect.so.4.2:_ZN2cv15groupRectanglesERSt6vectorINS_5Rect_IiEESaIS2_EERS0_IiSaIiEERS0_IdSaIdEEid
libopencv_objdetect.so.4.2:_ZN2cv15groupRectanglesERSt6vectorINS_5Rect_IiEESaIS2_EERS0_IiSaIiEEid
libopencv_objdetect.so.4.2:_ZN2cv15groupRectanglesERSt6vectorINS_5Rect_IiEESaIS2_EEid
libopencv_objdetect.so.4.2:_ZN2cv15groupRectanglesERSt6vectorINS_5Rect_IiEESaIS2_EEidPS0_IiSaIiEEPS0_IdSaIdEE
libopencv_objdetect.so.4.2:_ZN2cv17CascadeClassifier13getOldCascadeEv
libopencv_objdetect.so.4.2:_ZN2cv17CascadeClassifier16detectMultiScaleERKNS_11_InputArrayERSt6vectorINS_5Rect_IiEESaIS6_EERS4_IiSaIiEERS4_IdSaIdEEdiiNS_5Size_IiEESH_b
libopencv_objdetect.so.4.2:_ZN2cv17CascadeClassifier16detectMultiScaleERKNS_11_InputArrayERSt6vectorINS_5Rect_IiEESaIS6_EERS4_IiSaIiEEdiiNS_5Size_IiEESE_
libopencv_objdetect.so.4.2:_ZN2cv17CascadeClassifier16detectMultiScaleERKNS_11_InputArrayERSt6vectorINS_5Rect_IiEESaIS6_EEdiiNS_5Size_IiEESB_
libopencv_objdetect.so.4.2:_ZN2cv17CascadeClassifier16getMaskGeneratorEv
libopencv_objdetect.so.4.2:_ZN2cv17CascadeClassifier16setMaskGeneratorERKNS_3PtrINS_21BaseCascadeClassifier13MaskGeneratorEEE
libopencv_objdetect.so.4.2:_ZN2cv17CascadeClassifier4loadERKNSt7__cxx1112basic_stringIcSt11char_traitsIcESaIcEEE
libopencv_objdetect.so.4.2:_ZN2cv17CascadeClassifier4readERKNS_8FileNodeE
libopencv_objdetect.so.4.2:_ZN2cv17CascadeClassifier7convertERKNSt7__cxx1112basic_stringIcSt11char_traitsIcESaIcEEES8_
libopencv_objdetect.so.4.2:_ZN2cv17CascadeClassifierC1ERKNSt7__cxx1112basic_stringIcSt11char_traitsIcESaIcEEE
libopencv_objdetect.so.4.2:_ZN2cv17CascadeClassifierC1Ev
libopencv_objdetect.so.4.2:_ZN2cv17CascadeClassifierC2ERKNSt7__cxx1112basic_stringIcSt11char_traitsIcESaIcEEE
libopencv_objdetect.so.4.2:_ZN2cv17CascadeClassifierC2Ev
libopencv_objdetect.so.4.2:_ZN2cv17CascadeClassifierD1Ev
libopencv_objdetect.so.4.2:_ZN2cv17CascadeClassifierD2Ev
libopencv_objdetect.so.4.2:_ZN2cv21BaseCascadeClassifierD0Ev
libopencv_objdetect.so.4.2:_ZN2cv21BaseCascadeClassifierD1Ev
libopencv_objdetect.so.4.2:_ZN2cv21BaseCascadeClassifierD2Ev
libopencv_objdetect.so.4.2:_ZN2cv21DetectionBasedTracker10ParametersC1Ev
libopencv_objdetect.so.4.2:_ZN2cv21DetectionBasedTracker10ParametersC2Ev
libopencv_objdetect.so.4.2:_ZN2cv21DetectionBasedTracker13resetTrackingEv
libopencv_objdetect.so.4.2:_ZN2cv21DetectionBasedTracker13setParametersERKNS0_10ParametersE
libopencv_objdetect.so.4.2:_ZN2cv21DetectionBasedTracker14detectInRegionERKNS_3MatERKNS_5Rect_IiEERSt6vectorIS5_SaIS5_EE
libopencv_objdetect.so.4.2:_ZN2cv21DetectionBasedTracker15InnerParametersC1Ev
libopencv_objdetect.so.4.2:_ZN2cv21DetectionBasedTracker15InnerParametersC2Ev
libopencv_objdetect.so.4.2:_ZN2cv21DetectionBasedTracker20updateTrackedObjectsERKSt6vectorINS_5Rect_IiEESaIS3_EE
libopencv_objdetect.so.4.2:_ZN2cv21DetectionBasedTracker21SeparateDetectionWork13resetTrackingEv
libopencv_objdetect.so.4.2:_ZN2cv21DetectionBasedTracker21SeparateDetectionWork23workcycleObjectDetectorEv
libopencv_objdetect.so.4.2:_ZN2cv21DetectionBasedTracker21SeparateDetectionWork30communicateWithDetectingThreadERKNS_3MatERSt6vectorINS_5Rect_IiEESaIS7_EE
libopencv_objdetect.so.4.2:_ZN2cv21DetectionBasedTracker21SeparateDetectionWork3runEv
libopencv_objdetect.so.4.2:_ZN2cv21DetectionBasedTracker21SeparateDetectionWork4stopEv
libopencv_objdetect.so.4.2:_ZN2cv21DetectionBasedTracker21SeparateDetectionWorkC1ERS0_NS_3PtrINS0_9IDetectorEEERKNS0_10ParametersE
libopencv_objdetect.so.4.2:_ZN2cv21DetectionBasedTracker21SeparateDetectionWorkC2ERS0_NS_3PtrINS0_9IDetectorEEERKNS0_10ParametersE
libopencv_objdetect.so.4.2:_ZN2cv21DetectionBasedTracker21SeparateDetectionWorkD0Ev
libopencv_objdetect.so.4.2:_ZN2cv21DetectionBasedTracker21SeparateDetectionWorkD1Ev
libopencv_objdetect.so.4.2:_ZN2cv21DetectionBasedTracker21SeparateDetectionWorkD2Ev
libopencv_objdetect.so.4.2:_ZN2cv21DetectionBasedTracker3runEv
libopencv_objdetect.so.4.2:_ZN2cv21DetectionBasedTracker4stopEv
libopencv_objdetect.so.4.2:_ZN2cv21DetectionBasedTracker7processERKNS_3MatE
libopencv_objdetect.so.4.2:_ZN2cv21DetectionBasedTracker9addObjectERKNS_5Rect_IiEE
libopencv_objdetect.so.4.2:_ZN2cv21DetectionBasedTrackerC1ENS_3PtrINS0_9IDetectorEEES3_RKNS0_10ParametersE
libopencv_objdetect.so.4.2:_ZN2cv21DetectionBasedTrackerC2ENS_3PtrINS0_9IDetectorEEES3_RKNS0_10ParametersE
libopencv_objdetect.so.4.2:_ZN2cv21DetectionBasedTrackerD0Ev
libopencv_objdetect.so.4.2:_ZN2cv21DetectionBasedTrackerD1Ev
libopencv_objdetect.so.4.2:_ZN2cv21DetectionBasedTrackerD2Ev
libopencv_objdetect.so.4.2:_ZN2cv25groupRectangles_meanshiftERSt6vectorINS_5Rect_IiEESaIS2_EERS0_IdSaIdEES8_dNS_5Size_IiEE
libopencv_objdetect.so.4.2:_ZN2cv32createFaceDetectionMaskGeneratorEv
libopencv_objdetect.so.4.2:_ZNK2cv13HOGDescriptor11getWinSigmaEv
libopencv_objdetect.so.4.2:_ZNK2cv13HOGDescriptor15computeGradientERKNS_11_InputArrayERKNS_17_InputOutputArrayES6_NS_5Size_IiEES8_
libopencv_objdetect.so.4.2:_ZNK2cv13HOGDescriptor15groupRectanglesERSt6vectorINS_5Rect_IiEESaIS3_EERS1_IdSaIdEEid
libopencv_objdetect.so.4.2:_ZNK2cv13HOGDescriptor16detectMultiScaleERKNS_11_InputArrayERSt6vectorINS_5Rect_IiEESaIS6_EERS4_IdSaIdEEdNS_5Size_IiEESE_ddb
libopencv_objdetect.so.4.2:_ZNK2cv13HOGDescriptor16detectMultiScaleERKNS_11_InputArrayERSt6vectorINS_5Rect_IiEESaIS6_EEdNS_5Size_IiEESB_ddb
libopencv_objdetect.so.4.2:_ZNK2cv13HOGDescriptor17checkDetectorSizeEv
libopencv_objdetect.so.4.2:_ZNK2cv13HOGDescriptor17getDescriptorSizeEv
libopencv_objdetect.so.4.2:_ZNK2cv13HOGDescriptor19detectMultiScaleROIERKNS_11_InputArrayERSt6vectorINS_5Rect_IiEESaIS6_EERS4_INS_12DetectionROIESaISA_EEdi
libopencv_objdetect.so.4.2:_ZNK2cv13HOGDescriptor4saveERKNSt7__cxx1112basic_stringIcSt11char_traitsIcESaIcEEES8_
libopencv_objdetect.so.4.2:_ZNK2cv13HOGDescriptor5writeERNS_11FileStorageERKNSt7__cxx1112basic_stringIcSt11char_traitsIcESaIcEEE
libopencv_objdetect.so.4.2:_ZNK2cv13HOGDescriptor6copyToERS0_
libopencv_objdetect.so.4.2:_ZNK2cv13HOGDescriptor6detectERKNS_11_InputArrayERSt6vectorINS_6Point_IiEESaIS6_EERS4_IdSaIdEEdNS_5Size_IiEESE_RKS8_
libopencv_objdetect.so.4.2:_ZNK2cv13HOGDescriptor6detectERKNS_11_InputArrayERSt6vectorINS_6Point_IiEESaIS6_EEdNS_5Size_IiEESB_RKS8_
libopencv_objdetect.so.4.2:_ZNK2cv13HOGDescriptor7computeERKNS_11_InputArrayERSt6vectorIfSaIfEENS_5Size_IiEES9_RKS4_INS_6Point_IiEESaISB_EE
libopencv_objdetect.so.4.2:_ZNK2cv13HOGDescriptor9detectROIERKNS_11_InputArrayERKSt6vectorINS_6Point_IiEESaIS6_EERS8_RS4_IdSaIdEEdNS_5Size_IiEESG_
libopencv_objdetect.so.4.2:_ZNK2cv14QRCodeDetector6detectERKNS_11_InputArrayERKNS_12_OutputArrayE
libopencv_objdetect.so.4.2:_ZNK2cv17CascadeClassifier14getFeatureTypeEv
libopencv_objdetect.so.4.2:_ZNK2cv17CascadeClassifier18isOldFormatCascadeEv
libopencv_objdetect.so.4.2:_ZNK2cv17CascadeClassifier21getOriginalWindowSizeEv
libopencv_objdetect.so.4.2:_ZNK2cv17CascadeClassifier5emptyEv
libopencv_objdetect.so.4.2:_ZNK2cv21DetectionBasedTracker10getObjectsERSt6vectorINS0_9ExtObjectESaIS2_EE
libopencv_objdetect.so.4.2:_ZNK2cv21DetectionBasedTracker10getObjectsERSt6vectorINS_5Rect_IiEESaIS3_EE
libopencv_objdetect.so.4.2:_ZNK2cv21DetectionBasedTracker10getObjectsERSt6vectorISt4pairINS_5Rect_IiEEiESaIS5_EE
libopencv_objdetect.so.4.2:_ZNK2cv21DetectionBasedTracker13getParametersEv
libopencv_objdetect.so.4.2:_ZNK2cv21DetectionBasedTracker31calcTrackedObjectPositionToShowEi
libopencv_objdetect.so.4.2:_ZNK2cv21DetectionBasedTracker31calcTrackedObjectPositionToShowEiRNS0_12ObjectStatusE
libopencv_photo.so.4.2:_ZN2cv11colorChangeERKNS_11_InputArrayES2_RKNS_12_OutputArrayEfff
libopencv_photo.so.4.2:_ZN2cv11stylizationERKNS_11_InputArrayERKNS_12_OutputArrayEff
libopencv_photo.so.4.2:_ZN2cv12denoise_TVL1ERKSt6vectorINS_3MatESaIS1_EERS1_di
libopencv_photo.so.4.2:_ZN2cv12pencilSketchERKNS_11_InputArrayERKNS_12_OutputArrayES5_fff
libopencv_photo.so.4.2:_ZN2cv13createTonemapEf
libopencv_photo.so.4.2:_ZN2cv13detailEnhanceERKNS_11_InputArrayERKNS_12_OutputArrayEff
libopencv_photo.so.4.2:_ZN2cv13seamlessCloneERKNS_11_InputArrayES2_S2_NS_6Point_IiEERKNS_12_OutputArrayEi
libopencv_photo.so.4.2:_ZN2cv14createAlignMTBEiib
libopencv_photo.so.4.2:_ZN2cv17textureFlatteningERKNS_11_InputArrayES2_RKNS_12_OutputArrayEffi
libopencv_photo.so.4.2:_ZN2cv18createMergeDebevecEv
libopencv_photo.so.4.2:_ZN2cv18createMergeMertensEfff
libopencv_photo.so.4.2:_ZN2cv18createTonemapDragoEfff
libopencv_photo.so.4.2:_ZN2cv18illuminationChangeERKNS_11_InputArrayES2_RKNS_12_OutputArrayEff
libopencv_photo.so.4.2:_ZN2cv20createMergeRobertsonEv
libopencv_photo.so.4.2:_ZN2cv20createTonemapMantiukEfff
libopencv_photo.so.4.2:_ZN2cv20edgePreservingFilterERKNS_11_InputArrayERKNS_12_OutputArrayEiff
libopencv_photo.so.4.2:_ZN2cv20fastNlMeansDenoisingERKNS_11_InputArrayERKNS_12_OutputArrayERKSt6vectorIfSaIfEEiii
libopencv_photo.so.4.2:_ZN2cv20fastNlMeansDenoisingERKNS_11_InputArrayERKNS_12_OutputArrayEfii
libopencv_photo.so.4.2:_ZN2cv21createTonemapReinhardEffff
libopencv_photo.so.4.2:_ZN2cv22createCalibrateDebevecEifb
libopencv_photo.so.4.2:_ZN2cv24createCalibrateRobertsonEif
libopencv_photo.so.4.2:_ZN2cv25fastNlMeansDenoisingMultiERKNS_11_InputArrayERKNS_12_OutputArrayEiiRKSt6vectorIfSaIfEEiii
libopencv_photo.so.4.2:_ZN2cv25fastNlMeansDenoisingMultiERKNS_11_InputArrayERKNS_12_OutputArrayEiifii
libopencv_photo.so.4.2:_ZN2cv27fastNlMeansDenoisingColoredERKNS_11_InputArrayERKNS_12_OutputArrayEffii
libopencv_photo.so.4.2:_ZN2cv32fastNlMeansDenoisingColoredMultiERKNS_11_InputArrayERKNS_12_OutputArrayEiiffii
libopencv_photo.so.4.2:_ZN2cv4cuda13nonLocalMeansERKNS_11_InputArrayERKNS_12_OutputArrayEfiiiRNS0_6StreamE
libopencv_photo.so.4.2:_ZN2cv4cuda20fastNlMeansDenoisingERKNS_11_InputArrayERKNS_12_OutputArrayEfiiRNS0_6StreamE
libopencv_photo.so.4.2:_ZN2cv4cuda27fastNlMeansDenoisingColoredERKNS_11_InputArrayERKNS_12_OutputArrayEffiiRNS0_6StreamE
libopencv_photo.so.4.2:_ZN2cv7decolorERKNS_11_InputArrayERKNS_12_OutputArrayES5_
libopencv_photo.so.4.2:_ZN2cv7inpaintERKNS_11_InputArrayES2_RKNS_12_OutputArrayEdi
libopencv_stitching.so.4.2:_ZN2cv16PyRotationWarper12warpBackwardERKNS_11_InputArrayES3_S3_iiNS_5Size_IiEERKNS_12_OutputArrayE
libopencv_stitching.so.4.2:_ZN2cv16PyRotationWarper4warpERKNS_11_InputArrayES3_S3_iiRKNS_12_OutputArrayE
libopencv_stitching.so.4.2:_ZN2cv16PyRotationWarper7warpRoiENS_5Size_IiEERKNS_11_InputArrayES5_
libopencv_stitching.so.4.2:_ZN2cv16PyRotationWarper9buildMapsENS_5Size_IiEERKNS_11_InputArrayES5_RKNS_12_OutputArrayES8_
libopencv_stitching.so.4.2:_ZN2cv16PyRotationWarper9warpPointERKNS_6Point_IfEERKNS_11_InputArrayES7_
libopencv_stitching.so.4.2:_ZN2cv16PyRotationWarperC1ENSt7__cxx1112basic_stringIcSt11char_traitsIcESaIcEEEf
libopencv_stitching.so.4.2:_ZN2cv16PyRotationWarperC2ENSt7__cxx1112basic_stringIcSt11char_traitsIcESaIcEEEf
libopencv_stitching.so.4.2:_ZN2cv6detail10SeamFinder13createDefaultEi
libopencv_stitching.so.4.2:_ZN2cv6detail10Timelapser10initializeERKSt6vectorINS_6Point_IiEESaIS4_EERKS2_INS_5Size_IiEESaISA_EE
libopencv_stitching.so.4.2:_ZN2cv6detail10Timelapser10test_pointENS_6Point_IiEE
libopencv_stitching.so.4.2:_ZN2cv6detail10Timelapser13createDefaultEi
libopencv_stitching.so.4.2:_ZN2cv6detail10Timelapser7processERKNS_11_InputArrayES4_NS_6Point_IiEE
libopencv_stitching.so.4.2:_ZN2cv6detail10overlapRoiENS_6Point_IiEES2_NS_5Size_IiEES4_RNS_5Rect_IiEE
libopencv_stitching.so.4.2:_ZN2cv6detail11MatchesInfoC1ERKS1_
libopencv_stitching.so.4.2:_ZN2cv6detail11MatchesInfoC1Ev
libopencv_stitching.so.4.2:_ZN2cv6detail11MatchesInfoC2ERKS1_
libopencv_stitching.so.4.2:_ZN2cv6detail11MatchesInfoC2Ev
libopencv_stitching.so.4.2:_ZN2cv6detail11MatchesInfoaSERKS1_
libopencv_stitching.so.4.2:_ZN2cv6detail11PlaneWarper15detectResultRoiENS_5Size_IiEERNS_6Point_IiEES6_
libopencv_stitching.so.4.2:_ZN2cv6detail11PlaneWarper4warpERKNS_11_InputArrayES4_S4_S4_iiRKNS_12_OutputArrayE
libopencv_stitching.so.4.2:_ZN2cv6detail11PlaneWarper4warpERKNS_11_InputArrayES4_S4_iiRKNS_12_OutputArrayE
libopencv_stitching.so.4.2:_ZN2cv6detail11PlaneWarper7warpRoiENS_5Size_IiEERKNS_11_InputArrayES6_
libopencv_stitching.so.4.2:_ZN2cv6detail11PlaneWarper7warpRoiENS_5Size_IiEERKNS_11_InputArrayES6_S6_
libopencv_stitching.so.4.2:_ZN2cv6detail11PlaneWarper9buildMapsENS_5Size_IiEERKNS_11_InputArrayES6_RKNS_12_OutputArrayES9_
libopencv_stitching.so.4.2:_ZN2cv6detail11PlaneWarper9buildMapsENS_5Size_IiEERKNS_11_InputArrayES6_S6_RKNS_12_OutputArrayES9_
libopencv_stitching.so.4.2:_ZN2cv6detail11PlaneWarper9warpPointERKNS_6Point_IfEERKNS_11_InputArrayES8_
libopencv_stitching.so.4.2:_ZN2cv6detail11PlaneWarper9warpPointERKNS_6Point_IfEERKNS_11_InputArrayES8_S8_
libopencv_stitching.so.4.2:_ZN2cv6detail11waveCorrectERSt6vectorINS_3MatESaIS2_EENS0_15WaveCorrectKindE
libopencv_stitching.so.4.2:_ZN2cv6detail12AffineWarper20getRTfromHomogeneousERKNS_11_InputArrayERNS_3MatES6_
libopencv_stitching.so.4.2:_ZN2cv6detail12AffineWarper4warpERKNS_11_InputArrayES4_S4_iiRKNS_12_OutputArrayE
libopencv_stitching.so.4.2:_ZN2cv6detail12AffineWarper7warpRoiENS_5Size_IiEERKNS_11_InputArrayES6_
libopencv_stitching.so.4.2:_ZN2cv6detail12AffineWarper9buildMapsENS_5Size_IiEERKNS_11_InputArrayES6_RKNS_12_OutputArrayES9_
libopencv_stitching.so.4.2:_ZN2cv6detail12AffineWarper9warpPointERKNS_6Point_IfEERKNS_11_InputArrayES8_
libopencv_stitching.so.4.2:_ZN2cv6detail12CameraParamsC1ERKS1_
libopencv_stitching.so.4.2:_ZN2cv6detail12CameraParamsC1Ev
libopencv_stitching.so.4.2:_ZN2cv6detail12CameraParamsC2ERKS1_
libopencv_stitching.so.4.2:_ZN2cv6detail12CameraParamsC2Ev
libopencv_stitching.so.4.2:_ZN2cv6detail12CameraParamsaSERKS1_
libopencv_stitching.so.4.2:_ZN2cv6detail12DisjointSets13findSetByElemEi
libopencv_stitching.so.4.2:_ZN2cv6detail12DisjointSets17createOneElemSetsEi
libopencv_stitching.so.4.2:_ZN2cv6detail12DisjointSets9mergeSetsEii
libopencv_stitching.so.4.2:_ZN2cv6detail12DpSeamFinder11getSeamTipsEiiRNS_6Point_IiEES4_
libopencv_stitching.so.4.2:_ZN2cv6detail12DpSeamFinder12computeCostsERKNS_3MatES4_NS_6Point_IiEES6_iRNS_4Mat_IfEES9_
libopencv_stitching.so.4.2:_ZN2cv6detail12DpSeamFinder12estimateSeamERKNS_3MatES4_NS_6Point_IiEES6_iS6_S6_RSt6vectorIS6_SaIS6_EERb
libopencv_stitching.so.4.2:_ZN2cv6detail12DpSeamFinder14closeToContourEiiRKNS_4Mat_IhEE
libopencv_stitching.so.4.2:_ZN2cv6detail12DpSeamFinder14findComponentsEv
libopencv_stitching.so.4.2:_ZN2cv6detail12DpSeamFinder15setCostFunctionENSt7__cxx1112basic_stringIcSt11char_traitsIcESaIcEEE
libopencv_stitching.so.4.2:_ZN2cv6detail12DpSeamFinder16computeGradientsERKNS_3MatES4_
libopencv_stitching.so.4.2:_ZN2cv6detail12DpSeamFinder16resolveConflictsERKNS_3MatES4_NS_6Point_IiEES6_RS2_S7_
libopencv_stitching.so.4.2:_ZN2cv6detail12DpSeamFinder18hasOnlyOneNeighborEi
libopencv_stitching.so.4.2:_ZN2cv6detail12DpSeamFinder21updateLabelsUsingSeamEiiRKSt6vectorINS_6Point_IiEESaIS4_EEb
libopencv_stitching.so.4.2:_ZN2cv6detail12DpSeamFinder4findERKSt6vectorINS_4UMatESaIS3_EERKS2_INS_6Point_IiEESaIS9_EERS5_
libopencv_stitching.so.4.2:_ZN2cv6detail12DpSeamFinder7processERKNS_3MatES4_NS_6Point_IiEES6_RS2_S7_
libopencv_stitching.so.4.2:_ZN2cv6detail12DpSeamFinder9findEdgesEv
libopencv_stitching.so.4.2:_ZN2cv6detail12DpSeamFinderC1ENS1_12CostFunctionE
libopencv_stitching.so.4.2:_ZN2cv6detail12DpSeamFinderC1ENSt7__cxx1112basic_stringIcSt11char_traitsIcESaIcEEE
libopencv_stitching.so.4.2:_ZN2cv6detail12DpSeamFinderC2ENS1_12CostFunctionE
libopencv_stitching.so.4.2:_ZN2cv6detail12DpSeamFinderC2ENSt7__cxx1112basic_stringIcSt11char_traitsIcESaIcEEE
libopencv_stitching.so.4.2:_ZN2cv6detail13ProjectorBase15setCameraParamsERKNS_11_InputArrayES4_S4_
libopencv_stitching.so.4.2:_ZN2cv6detail13estimateFocalERKSt6vectorINS0_13ImageFeaturesESaIS2_EERKS1_INS0_11MatchesInfoESaIS7_EERS1_IdSaIdEE
libopencv_stitching.so.4.2:_ZN2cv6detail14FeatherBlender16createWeightMapsERKSt6vectorINS_4UMatESaIS3_EERKS2_INS_6Point_IiEESaIS9_EERS5_
libopencv_stitching.so.4.2:_ZN2cv6detail14FeatherBlender4feedERKNS_11_InputArrayES4_NS_6Point_IiEE
libopencv_stitching.so.4.2:_ZN2cv6detail14FeatherBlender5blendERKNS_17_InputOutputArrayES4_
libopencv_stitching.so.4.2:_ZN2cv6detail14FeatherBlender7prepareENS_5Rect_IiEE
libopencv_stitching.so.4.2:_ZN2cv6detail14PlaneWarperGpu4warpERKNS_4cuda6GpuMatERKNS_11_InputArrayES8_S8_iiRS3_
libopencv_stitching.so.4.2:_ZN2cv6detail14PlaneWarperGpu4warpERKNS_4cuda6GpuMatERKNS_11_InputArrayES8_iiRS3_
libopencv_stitching.so.4.2:_ZN2cv6detail14PlaneWarperGpu9buildMapsENS_5Size_IiEERKNS_11_InputArrayES6_RNS_4cuda6GpuMatES9_
libopencv_stitching.so.4.2:_ZN2cv6detail14PlaneWarperGpu9buildMapsENS_5Size_IiEERKNS_11_InputArrayES6_S6_RNS_4cuda6GpuMatES9_
libopencv_stitching.so.4.2:_ZN2cv6detail14TimelapserCrop10initializeERKSt6vectorINS_6Point_IiEESaIS4_EERKS2_INS_5Size_IiEESaISA_EE
libopencv_stitching.so.4.2:_ZN2cv6detail15FeaturesMatcherclERKSt6vectorINS0_13ImageFeaturesESaIS3_EERS2_INS0_11MatchesInfoESaIS8_EERKNS_4UMatE
libopencv_stitching.so.4.2:_ZN2cv6detail15GainCompensator10singleFeedERKSt6vectorINS_6Point_IiEESaIS4_EERKS2_INS_4UMatESaIS9_EERKS2_ISt4pairIS9_hESaISF_EE
libopencv_stitching.so.4.2:_ZN2cv6detail15GainCompensator11getMatGainsERSt6vectorINS_3MatESaIS3_EE
libopencv_stitching.so.4.2:_ZN2cv6detail15GainCompensator11setMatGainsERSt6vectorINS_3MatESaIS3_EE
libopencv_stitching.so.4.2:_ZN2cv6detail15GainCompensator4feedERKSt6vectorINS_6Point_IiEESaIS4_EERKS2_INS_4UMatESaIS9_EERKS2_ISt4pairIS9_hESaISF_EE
libopencv_stitching.so.4.2:_ZN2cv6detail15GainCompensator5applyEiNS_6Point_IiEERKNS_17_InputOutputArrayERKNS_11_InputArrayE
libopencv_stitching.so.4.2:_ZN2cv6detail15SphericalWarper15detectResultRoiENS_5Size_IiEERNS_6Point_IiEES6_
libopencv_stitching.so.4.2:_ZN2cv6detail15SphericalWarper4warpERKNS_11_InputArrayES4_S4_iiRKNS_12_OutputArrayE
libopencv_stitching.so.4.2:_ZN2cv6detail15SphericalWarper9buildMapsENS_5Size_IiEERKNS_11_InputArrayES6_RKNS_12_OutputArrayES9_
libopencv_stitching.so.4.2:_ZN2cv6detail15createWeightMapERKNS_11_InputArrayEfRKNS_17_InputOutputArrayE
libopencv_stitching.so.4.2:_ZN2cv6detail16MultiBandBlender4feedERKNS_11_InputArrayES4_NS_6Point_IiEE
libopencv_stitching.so.4.2:_ZN2cv6detail16MultiBandBlender5blendERKNS_17_InputOutputArrayES4_
libopencv_stitching.so.4.2:_ZN2cv6detail16MultiBandBlender7prepareENS_5Rect_IiEE
libopencv_stitching.so.4.2:_ZN2cv6detail16MultiBandBlenderC1Eiii
libopencv_stitching.so.4.2:_ZN2cv6detail16MultiBandBlenderC2Eiii
libopencv_stitching.so.4.2:_ZN2cv6detail16createLaplacePyrERKNS_11_InputArrayEiRSt6vectorINS_4UMatESaIS5_EE
libopencv_stitching.so.4.2:_ZN2cv6detail17BlocksCompensator10getGainMapERKNS0_15GainCompensatorEiNS_5Size_IiEE
libopencv_stitching.so.4.2:_ZN2cv6detail17BlocksCompensator10getGainMapERKNS0_19ChannelsCompensatorEiNS_5Size_IiEE
libopencv_stitching.so.4.2:_ZN2cv6detail17BlocksCompensator11getMatGainsERSt6vectorINS_3MatESaIS3_EE
libopencv_stitching.so.4.2:_ZN2cv6detail17BlocksCompensator11setMatGainsERSt6vectorINS_3MatESaIS3_EE
libopencv_stitching.so.4.2:_ZN2cv6detail17BlocksCompensator5applyEiNS_6Point_IiEERKNS_17_InputOutputArrayERKNS_11_InputArrayE
libopencv_stitching.so.4.2:_ZN2cv6detail17BundleAdjusterRay12calcJacobianERNS_3MatE
libopencv_stitching.so.4.2:_ZN2cv6detail17BundleAdjusterRay24setUpInitialCameraParamsERKSt6vectorINS0_12CameraParamsESaIS3_EE
libopencv_stitching.so.4.2:_ZN2cv6detail17BundleAdjusterRay9calcErrorERNS_3MatE
libopencv_stitching.so.4.2:_ZN2cv6detail17CylindricalWarper4warpERKNS_11_InputArrayES4_S4_iiRKNS_12_OutputArrayE
libopencv_stitching.so.4.2:_ZN2cv6detail17CylindricalWarper9buildMapsENS_5Size_IiEERKNS_11_InputArrayES6_RKNS_12_OutputArrayES9_
libopencv_stitching.so.4.2:_ZN2cv6detail17VoronoiSeamFinder10findInPairEmmNS_5Rect_IiEE
libopencv_stitching.so.4.2:_ZN2cv6detail17VoronoiSeamFinder4findERKSt6vectorINS_4UMatESaIS3_EERKS2_INS_6Point_IiEESaIS9_EERS5_
libopencv_stitching.so.4.2:_ZN2cv6detail17VoronoiSeamFinder4findERKSt6vectorINS_5Size_IiEESaIS4_EERKS2_INS_6Point_IiEESaISA_EERS2_INS_4UMatESaISF_EE
libopencv_stitching.so.4.2:_ZN2cv6detail17stitchingLogLevelEv
libopencv_stitching.so.4.2:_ZN2cv6detail18BundleAdjusterBase8estimateERKSt6vectorINS0_13ImageFeaturesESaIS3_EERKS2_INS0_11MatchesInfoESaIS8_EERS2_INS0_12CameraParamsESaISD_EE
libopencv_stitching.so.4.2:_ZN2cv6detail18GraphCutSeamFinder4Impl10findInPairEmmNS_5Rect_IiEE
libopencv_stitching.so.4.2:_ZN2cv6detail18GraphCutSeamFinder4Impl20setGraphWeightsColorERKNS_3MatES5_S5_S5_RNS0_7GCGraphIfEE
libopencv_stitching.so.4.2:_ZN2cv6detail18GraphCutSeamFinder4Impl24setGraphWeightsColorGradERKNS_3MatES5_S5_S5_S5_S5_S5_S5_RNS0_7GCGraphIfEE
libopencv_stitching.so.4.2:_ZN2cv6detail18GraphCutSeamFinder4Impl4findERKSt6vectorINS_4UMatESaIS4_EERKS3_INS_6Point_IiEESaISA_EERS6_
libopencv_stitching.so.4.2:_ZN2cv6detail18GraphCutSeamFinder4findERKSt6vectorINS_4UMatESaIS3_EERKS2_INS_6Point_IiEESaIS9_EERS5_
libopencv_stitching.so.4.2:_ZN2cv6detail18GraphCutSeamFinderC1ENSt7__cxx1112basic_stringIcSt11char_traitsIcESaIcEEEff
libopencv_stitching.so.4.2:_ZN2cv6detail18GraphCutSeamFinderC1Eiff
libopencv_stitching.so.4.2:_ZN2cv6detail18GraphCutSeamFinderC2ENSt7__cxx1112basic_stringIcSt11char_traitsIcESaIcEEEff
libopencv_stitching.so.4.2:_ZN2cv6detail18GraphCutSeamFinderC2Eiff
libopencv_stitching.so.4.2:_ZN2cv6detail18GraphCutSeamFinderD0Ev
libopencv_stitching.so.4.2:_ZN2cv6detail18GraphCutSeamFinderD1Ev
libopencv_stitching.so.4.2:_ZN2cv6detail18GraphCutSeamFinderD2Ev
libopencv_stitching.so.4.2:_ZN2cv6detail18PairwiseSeamFinder3runEv
libopencv_stitching.so.4.2:_ZN2cv6detail18PairwiseSeamFinder4findERKSt6vectorINS_4UMatESaIS3_EERKS2_INS_6Point_IiEESaIS9_EERS5_
libopencv_stitching.so.4.2:_ZN2cv6detail18SphericalWarperGpu4warpERKNS_4cuda6GpuMatERKNS_11_InputArrayES8_iiRS3_
libopencv_stitching.so.4.2:_ZN2cv6detail18SphericalWarperGpu9buildMapsENS_5Size_IiEERKNS_11_InputArrayES6_RNS_4cuda6GpuMatES9_
libopencv_stitching.so.4.2:_ZN2cv6detail18selectRandomSubsetEiiRSt6vectorIiSaIiEE
libopencv_stitching.so.4.2:_ZN2cv6detail19ChannelsCompensator11getMatGainsERSt6vectorINS_3MatESaIS3_EE
libopencv_stitching.so.4.2:_ZN2cv6detail19ChannelsCompensator11setMatGainsERSt6vectorINS_3MatESaIS3_EE
libopencv_stitching.so.4.2:_ZN2cv6detail19ChannelsCompensator4feedERKSt6vectorINS_6Point_IiEESaIS4_EERKS2_INS_4UMatESaIS9_EERKS2_ISt4pairIS9_hESaISF_EE
libopencv_stitching.so.4.2:_ZN2cv6detail19ChannelsCompensator5applyEiNS_6Point_IiEERKNS_17_InputOutputArrayERKNS_11_InputArrayE
libopencv_stitching.so.4.2:_ZN2cv6detail19ExposureCompensator13createDefaultEi
libopencv_stitching.so.4.2:_ZN2cv6detail19ExposureCompensator4feedERKSt6vectorINS_6Point_IiEESaIS4_EERKS2_INS_4UMatESaIS9_EESD_
libopencv_stitching.so.4.2:_ZN2cv6detail19createLaplacePyrGpuERKNS_11_InputArrayEiRSt6vectorINS_4UMatESaIS5_EE
libopencv_stitching.so.4.2:_ZN2cv6detail19findMaxSpanningTreeEiRKSt6vectorINS0_11MatchesInfoESaIS2_EERNS0_5GraphERS1_IiSaIiEE
libopencv_stitching.so.4.2:_ZN2cv6detail20AffineBasedEstimator8estimateERKSt6vectorINS0_13ImageFeaturesESaIS3_EERKS2_INS0_11MatchesInfoESaIS8_EERS2_INS0_12CameraParamsESaISD_EE
libopencv_stitching.so.4.2:_ZN2cv6detail20BundleAdjusterAffine12calcJacobianERNS_3MatE
libopencv_stitching.so.4.2:_ZN2cv6detail20BundleAdjusterAffine24setUpInitialCameraParamsERKSt6vectorINS0_12CameraParamsESaIS3_EE
libopencv_stitching.so.4.2:_ZN2cv6detail20BundleAdjusterAffine9calcErrorERNS_3MatE
libopencv_stitching.so.4.2:_ZN2cv6detail20BundleAdjusterReproj12calcJacobianERNS_3MatE
libopencv_stitching.so.4.2:_ZN2cv6detail20BundleAdjusterReproj24setUpInitialCameraParamsERKSt6vectorINS0_12CameraParamsESaIS3_EE
libopencv_stitching.so.4.2:_ZN2cv6detail20BundleAdjusterReproj9calcErrorERNS_3MatE
libopencv_stitching.so.4.2:_ZN2cv6detail20CylindricalWarperGpu4warpERKNS_4cuda6GpuMatERKNS_11_InputArrayES8_iiRS3_
libopencv_stitching.so.4.2:_ZN2cv6detail20CylindricalWarperGpu9buildMapsENS_5Size_IiEERKNS_11_InputArrayES6_RNS_4cuda6GpuMatES9_
libopencv_stitching.so.4.2:_ZN2cv6detail20computeImageFeaturesERKNS_3PtrINS_9Feature2DEEERKNS_11_InputArrayERNS0_13ImageFeaturesES8_
libopencv_stitching.so.4.2:_ZN2cv6detail20computeImageFeaturesERKNS_3PtrINS_9Feature2DEEERKNS_11_InputArrayERSt6vectorINS0_13ImageFeaturesESaISA_EES8_
libopencv_stitching.so.4.2:_ZN2cv6detail20focalsFromHomographyERKNS_3MatERdS4_RbS5_
libopencv_stitching.so.4.2:_ZN2cv6detail20matchesGraphAsStringERSt6vectorINSt7__cxx1112basic_stringIcSt11char_traitsIcESaIcEEESaIS7_EERS1_INS0_11MatchesInfoESaISB_EEf
libopencv_stitching.so.4.2:_ZN2cv6detail21BestOf2NearestMatcher14collectGarbageEv
libopencv_stitching.so.4.2:_ZN2cv6detail21BestOf2NearestMatcher5matchERKNS0_13ImageFeaturesES4_RNS0_11MatchesInfoE
libopencv_stitching.so.4.2:_ZN2cv6detail21BestOf2NearestMatcher6createEbfii
libopencv_stitching.so.4.2:_ZN2cv6detail21BestOf2NearestMatcherC1Ebfii
libopencv_stitching.so.4.2:_ZN2cv6detail21BestOf2NearestMatcherC2Ebfii
libopencv_stitching.so.4.2:_ZN2cv6detail21BlocksGainCompensator4feedERKSt6vectorINS_6Point_IiEESaIS4_EERKS2_INS_4UMatESaIS9_EERKS2_ISt4pairIS9_hESaISF_EE
libopencv_stitching.so.4.2:_ZN2cv6detail21leaveBiggestComponentERSt6vectorINS0_13ImageFeaturesESaIS2_EERS1_INS0_11MatchesInfoESaIS6_EEf
libopencv_stitching.so.4.2:_ZN2cv6detail21resultRoiIntersectionERKSt6vectorINS_6Point_IiEESaIS3_EERKS1_INS_5Size_IiEESaIS9_EE
libopencv_stitching.so.4.2:_ZN2cv6detail23SphericalPortraitWarper15detectResultRoiENS_5Size_IiEERNS_6Point_IiEES6_
libopencv_stitching.so.4.2:_ZN2cv6detail23calibrateRotatingCameraERKSt6vectorINS_3MatESaIS2_EERS2_
libopencv_stitching.so.4.2:_ZN2cv6detail23normalizeUsingWeightMapERKNS_11_InputArrayERKNS_17_InputOutputArrayE
libopencv_stitching.so.4.2:_ZN2cv6detail24HomographyBasedEstimator8estimateERKSt6vectorINS0_13ImageFeaturesESaIS3_EERKS2_INS0_11MatchesInfoESaIS8_EERS2_INS0_12CameraParamsESaISD_EE
libopencv_stitching.so.4.2:_ZN2cv6detail25BlocksChannelsCompensator4feedERKSt6vectorINS_6Point_IiEESaIS4_EERKS2_INS_4UMatESaIS9_EERKS2_ISt4pairIS9_hESaISF_EE
libopencv_stitching.so.4.2:_ZN2cv6detail26BestOf2NearestRangeMatcherC1Eibfii
libopencv_stitching.so.4.2:_ZN2cv6detail26BestOf2NearestRangeMatcherC2Eibfii
libopencv_stitching.so.4.2:_ZN2cv6detail26BestOf2NearestRangeMatcherclERKSt6vectorINS0_13ImageFeaturesESaIS3_EERS2_INS0_11MatchesInfoESaIS8_EERKNS_4UMatE
libopencv_stitching.so.4.2:_ZN2cv6detail26restoreImageFromLaplacePyrERSt6vectorINS_4UMatESaIS2_EE
libopencv_stitching.so.4.2:_ZN2cv6detail27AffineBestOf2NearestMatcher5matchERKNS0_13ImageFeaturesES4_RNS0_11MatchesInfoE
libopencv_stitching.so.4.2:_ZN2cv6detail27BundleAdjusterAffinePartial12calcJacobianERNS_3MatE
libopencv_stitching.so.4.2:_ZN2cv6detail27BundleAdjusterAffinePartial24setUpInitialCameraParamsERKSt6vectorINS0_12CameraParamsESaIS3_EE
libopencv_stitching.so.4.2:_ZN2cv6detail27BundleAdjusterAffinePartial9calcErrorERNS_3MatE
libopencv_stitching.so.4.2:_ZN2cv6detail29restoreImageFromLaplacePyrGpuERSt6vectorINS_4UMatESaIS2_EE
libopencv_stitching.so.4.2:_ZN2cv6detail5Graph7addEdgeEiif
libopencv_stitching.so.4.2:_ZN2cv6detail7Blender13createDefaultEib
libopencv_stitching.so.4.2:_ZN2cv6detail7Blender4feedERKNS_11_InputArrayES4_NS_6Point_IiEE
libopencv_stitching.so.4.2:_ZN2cv6detail7Blender5blendERKNS_17_InputOutputArrayES4_
libopencv_stitching.so.4.2:_ZN2cv6detail7Blender7prepareENS_5Rect_IiEE
libopencv_stitching.so.4.2:_ZN2cv6detail7Blender7prepareERKSt6vectorINS_6Point_IiEESaIS4_EERKS2_INS_5Size_IiEESaISA_EE
libopencv_stitching.so.4.2:_ZN2cv6detail8resultTlERKSt6vectorINS_6Point_IiEESaIS3_EE
libopencv_stitching.so.4.2:_ZN2cv6detail9resultRoiERKSt6vectorINS_6Point_IiEESaIS3_EERKS1_INS_4UMatESaIS8_EE
libopencv_stitching.so.4.2:_ZN2cv6detail9resultRoiERKSt6vectorINS_6Point_IiEESaIS3_EERKS1_INS_5Size_IiEESaIS9_EE
libopencv_stitching.so.4.2:_ZN2cv8Stitcher11matchImagesEv
libopencv_stitching.so.4.2:_ZN2cv8Stitcher15composePanoramaERKNS_11_InputArrayERKNS_12_OutputArrayE
libopencv_stitching.so.4.2:_ZN2cv8Stitcher15composePanoramaERKNS_12_OutputArrayE
libopencv_stitching.so.4.2:_ZN2cv8Stitcher17estimateTransformERKNS_11_InputArrayES3_
libopencv_stitching.so.4.2:_ZN2cv8Stitcher20estimateCameraParamsEv
libopencv_stitching.so.4.2:_ZN2cv8Stitcher6createENS0_4ModeE
libopencv_stitching.so.4.2:_ZN2cv8Stitcher6stitchERKNS_11_InputArrayERKNS_12_OutputArrayE
libopencv_stitching.so.4.2:_ZN2cv8Stitcher6stitchERKNS_11_InputArrayES3_RKNS_12_OutputArrayE
libopencv_stitching.so.4.2:_ZNK2cv6detail12CameraParams1KEv
libopencv_stitching.so.4.2:_ZNK2cv6detail15GainCompensator5gainsEv
libopencv_stitching.so.4.2:_ZNK2cv6detail17BundleAdjusterRay25obtainRefinedCameraParamsERSt6vectorINS0_12CameraParamsESaIS3_EE
libopencv_stitching.so.4.2:_ZNK2cv6detail20BundleAdjusterAffine25obtainRefinedCameraParamsERSt6vectorINS0_12CameraParamsESaIS3_EE
libopencv_stitching.so.4.2:_ZNK2cv6detail20BundleAdjusterReproj25obtainRefinedCameraParamsERSt6vectorINS0_12CameraParamsESaIS3_EE
libopencv_stitching.so.4.2:_ZNK2cv6detail27BundleAdjusterAffinePartial25obtainRefinedCameraParamsERSt6vectorINS0_12CameraParamsESaIS3_EE
libopencv_video.so.4.2:_ZN2cv10computeECCERKNS_11_InputArrayES2_S2_
libopencv_video.so.4.2:_ZN2cv12KalmanFilter4initEiiii
libopencv_video.so.4.2:_ZN2cv12KalmanFilter7correctERKNS_3MatE
libopencv_video.so.4.2:_ZN2cv12KalmanFilter7predictERKNS_3MatE
libopencv_video.so.4.2:_ZN2cv12KalmanFilterC1Eiiii
libopencv_video.so.4.2:_ZN2cv12KalmanFilterC1Ev
libopencv_video.so.4.2:_ZN2cv12KalmanFilterC2Eiiii
libopencv_video.so.4.2:_ZN2cv12KalmanFilterC2Ev
libopencv_video.so.4.2:_ZN2cv14DISOpticalFlow6createEi
libopencv_video.so.4.2:_ZN2cv15readOpticalFlowERKNSt7__cxx1112basic_stringIcSt11char_traitsIcESaIcEEE
libopencv_video.so.4.2:_ZN2cv16findTransformECCERKNS_11_InputArrayES2_RKNS_17_InputOutputArrayEiNS_12TermCriteriaES2_
libopencv_video.so.4.2:_ZN2cv16findTransformECCERKNS_11_InputArrayES2_RKNS_17_InputOutputArrayEiNS_12TermCriteriaES2_i
libopencv_video.so.4.2:_ZN2cv16writeOpticalFlowERKNSt7__cxx1112basic_stringIcSt11char_traitsIcESaIcEEERKNS_11_InputArrayE
libopencv_video.so.4.2:_ZN2cv20FarnebackOpticalFlow6createEidbiiidi
libopencv_video.so.4.2:_ZN2cv20calcOpticalFlowPyrLKERKNS_11_InputArrayES2_S2_RKNS_17_InputOutputArrayERKNS_12_OutputArrayES8_NS_5Size_IiEEiNS_12TermCriteriaEid
libopencv_video.so.4.2:_ZN2cv21VariationalRefinement6createEv
libopencv_video.so.4.2:_ZN2cv22SparsePyrLKOpticalFlow6createENS_5Size_IiEEiNS_12TermCriteriaEid
libopencv_video.so.4.2:_ZN2cv22estimateRigidTransformERKNS_11_InputArrayES2_b
libopencv_video.so.4.2:_ZN2cv23buildOpticalFlowPyramidERKNS_11_InputArrayERKNS_12_OutputArrayENS_5Size_IiEEibiib
libopencv_video.so.4.2:_ZN2cv24calcOpticalFlowFarnebackERKNS_11_InputArrayES2_RKNS_17_InputOutputArrayEdiiiidi
libopencv_video.so.4.2:_ZN2cv29createBackgroundSubtractorKNNEidb
libopencv_video.so.4.2:_ZN2cv30createBackgroundSubtractorMOG2Eidb
libopencv_video.so.4.2:_ZN2cv8CamShiftERKNS_11_InputArrayERNS_5Rect_IiEENS_12TermCriteriaE
libopencv_video.so.4.2:_ZN2cv9meanShiftERKNS_11_InputArrayERNS_5Rect_IiEENS_12TermCriteriaE
libopencv_videoio.so.4.2:_ZN2cv11VideoWriter3setEid
libopencv_videoio.so.4.2:_ZN2cv11VideoWriter4openERKNSt7__cxx1112basic_stringIcSt11char_traitsIcESaIcEEEidNS_5Size_IiEEb
libopencv_videoio.so.4.2:_ZN2cv11VideoWriter4openERKNSt7__cxx1112basic_stringIcSt11char_traitsIcESaIcEEEiidNS_5Size_IiEEb
libopencv_videoio.so.4.2:_ZN2cv11VideoWriter5writeERKNS_11_InputArrayE
libopencv_videoio.so.4.2:_ZN2cv11VideoWriter6fourccEcccc
libopencv_videoio.so.4.2:_ZN2cv11VideoWriter7releaseEv
libopencv_videoio.so.4.2:_ZN2cv11VideoWriterC1ERKNSt7__cxx1112basic_stringIcSt11char_traitsIcESaIcEEEidNS_5Size_IiEEb
libopencv_videoio.so.4.2:_ZN2cv11VideoWriterC1ERKNSt7__cxx1112basic_stringIcSt11char_traitsIcESaIcEEEiidNS_5Size_IiEEb
libopencv_videoio.so.4.2:_ZN2cv11VideoWriterC1Ev
libopencv_videoio.so.4.2:_ZN2cv11VideoWriterC2ERKNSt7__cxx1112basic_stringIcSt11char_traitsIcESaIcEEEidNS_5Size_IiEEb
libopencv_videoio.so.4.2:_ZN2cv11VideoWriterC2ERKNSt7__cxx1112basic_stringIcSt11char_traitsIcESaIcEEEiidNS_5Size_IiEEb
libopencv_videoio.so.4.2:_ZN2cv11VideoWriterC2Ev
libopencv_videoio.so.4.2:_ZN2cv11VideoWriterD0Ev
libopencv_videoio.so.4.2:_ZN2cv11VideoWriterD1Ev
libopencv_videoio.so.4.2:_ZN2cv11VideoWriterD2Ev
libopencv_videoio.so.4.2:_ZN2cv11VideoWriterlsERKNS_3MatE
libopencv_videoio.so.4.2:_ZN2cv11VideoWriterlsERKNS_4UMatE
libopencv_videoio.so.4.2:_ZN2cv12VideoCapture3setEid
libopencv_videoio.so.4.2:_ZN2cv12VideoCapture4grabEv
libopencv_videoio.so.4.2:_ZN2cv12VideoCapture4openERKNSt7__cxx1112basic_stringIcSt11char_traitsIcESaIcEEEi
libopencv_videoio.so.4.2:_ZN2cv12VideoCapture4openEii
libopencv_videoio.so.4.2:_ZN2cv12VideoCapture4readERKNS_12_OutputArrayE
libopencv_videoio.so.4.2:_ZN2cv12VideoCapture7releaseEv
libopencv_videoio.so.4.2:_ZN2cv12VideoCapture7waitAnyERKSt6vectorIS0_SaIS0_EERS1_IiSaIiEEl
libopencv_videoio.so.4.2:_ZN2cv12VideoCapture8retrieveERKNS_12_OutputArrayEi
libopencv_videoio.so.4.2:_ZN2cv12VideoCaptureC1ERKNSt7__cxx1112basic_stringIcSt11char_traitsIcESaIcEEEi
libopencv_videoio.so.4.2:_ZN2cv12VideoCaptureC1Eii
libopencv_videoio.so.4.2:_ZN2cv12VideoCaptureC1Ev
libopencv_videoio.so.4.2:_ZN2cv12VideoCaptureC2ERKNSt7__cxx1112basic_stringIcSt11char_traitsIcESaIcEEEi
libopencv_videoio.so.4.2:_ZN2cv12VideoCaptureC2Eii
libopencv_videoio.so.4.2:_ZN2cv12VideoCaptureC2Ev
libopencv_videoio.so.4.2:_ZN2cv12VideoCaptureD0Ev
libopencv_videoio.so.4.2:_ZN2cv12VideoCaptureD1Ev
libopencv_videoio.so.4.2:_ZN2cv12VideoCaptureD2Ev
libopencv_videoio.so.4.2:_ZN2cv12VideoCapturersERNS_3MatE
libopencv_videoio.so.4.2:_ZN2cv12VideoCapturersERNS_4UMatE
libopencv_videoio.so.4.2:_ZN2cv16AVIReadContainer10initStreamENS_3PtrINS_16VideoInputStreamEEE
libopencv_videoio.so.4.2:_ZN2cv16AVIReadContainer10initStreamERKNSt7__cxx1112basic_stringIcSt11char_traitsIcESaIcEEE
libopencv_videoio.so.4.2:_ZN2cv16AVIReadContainer10parseIndexEjRSt5dequeISt4pairImjESaIS3_EE
libopencv_videoio.so.4.2:_ZN2cv16AVIReadContainer10printErrorERNS_8RiffListEj
libopencv_videoio.so.4.2:_ZN2cv16AVIReadContainer10printErrorERNS_9RiffChunkEj
libopencv_videoio.so.4.2:_ZN2cv16AVIReadContainer13parseHdrlListENS_6CodecsE
libopencv_videoio.so.4.2:_ZN2cv16AVIReadContainer21parseAviWithFrameListERSt5dequeISt4pairImjESaIS3_EENS_6CodecsE
libopencv_videoio.so.4.2:_ZN2cv16AVIReadContainer5closeEv
libopencv_videoio.so.4.2:_ZN2cv16AVIReadContainer8skipJunkERNS_8RiffListE
libopencv_videoio.so.4.2:_ZN2cv16AVIReadContainer8skipJunkERNS_9RiffChunkE
libopencv_videoio.so.4.2:_ZN2cv16AVIReadContainer9parseRiffERSt5dequeISt4pairImjESaIS3_EE
libopencv_videoio.so.4.2:_ZN2cv16AVIReadContainer9parseStrlEcNS_6CodecsE
libopencv_videoio.so.4.2:_ZN2cv16AVIReadContainer9readFrameESt15_Deque_iteratorISt4pairImjERS3_PS3_E
libopencv_videoio.so.4.2:_ZN2cv16AVIReadContainerC1Ev
libopencv_videoio.so.4.2:_ZN2cv16AVIReadContainerC2Ev
libopencv_videoio.so.4.2:_ZN2cv16videoio_registry10hasBackendENS_16VideoCaptureAPIsE
libopencv_videoio.so.4.2:_ZN2cv16videoio_registry11getBackendsEv
libopencv_videoio.so.4.2:_ZN2cv16videoio_registry14getBackendNameB5cxx11ENS_16VideoCaptureAPIsE
libopencv_videoio.so.4.2:_ZN2cv16videoio_registry17getCameraBackendsEv
libopencv_videoio.so.4.2:_ZN2cv16videoio_registry17getStreamBackendsEv
libopencv_videoio.so.4.2:_ZN2cv16videoio_registry17getWriterBackendsEv
libopencv_videoio.so.4.2:_ZN2cv17AVIWriteContainer10jputStreamEj
libopencv_videoio.so.4.2:_ZN2cv17AVIWriteContainer10writeIndexEiNS_10StreamTypeE
libopencv_videoio.so.4.2:_ZN2cv17AVIWriteContainer11getAVIIndexEiNS_10StreamTypeE
libopencv_videoio.so.4.2:_ZN2cv17AVIWriteContainer12jflushStreamEji
libopencv_videoio.so.4.2:_ZN2cv17AVIWriteContainer13endWriteChunkEv
libopencv_videoio.so.4.2:_ZN2cv17AVIWriteContainer13initContainerERKNSt7__cxx1112basic_stringIcSt11char_traitsIcESaIcEEEdNS_5Size_IiEEb
libopencv_videoio.so.4.2:_ZN2cv17AVIWriteContainer13putStreamByteEi
libopencv_videoio.so.4.2:_ZN2cv17AVIWriteContainer13startWriteAVIEi
libopencv_videoio.so.4.2:_ZN2cv17AVIWriteContainer14finishWriteAVIEv
libopencv_videoio.so.4.2:_ZN2cv17AVIWriteContainer14putStreamBytesEPKhi
libopencv_videoio.so.4.2:_ZN2cv17AVIWriteContainer15jputStreamShortEi
libopencv_videoio.so.4.2:_ZN2cv17AVIWriteContainer15startWriteChunkEj
libopencv_videoio.so.4.2:_ZN2cv17AVIWriteContainer17writeStreamHeaderENS_6CodecsE
libopencv_videoio.so.4.2:_ZN2cv17AVIWriteContainerC1Ev
libopencv_videoio.so.4.2:_ZN2cv17AVIWriteContainerC2Ev
libopencv_videoio.so.4.2:_ZN2cv17AVIWriteContainerD1Ev
libopencv_videoio.so.4.2:_ZN2cv17AVIWriteContainerD2Ev
libopencv_videoio.so.4.2:_ZNK2cv11VideoWriter14getBackendNameB5cxx11Ev
libopencv_videoio.so.4.2:_ZNK2cv11VideoWriter3getEi
libopencv_videoio.so.4.2:_ZNK2cv11VideoWriter8isOpenedEv
libopencv_videoio.so.4.2:_ZNK2cv12VideoCapture14getBackendNameB5cxx11Ev
libopencv_videoio.so.4.2:_ZNK2cv12VideoCapture3getEi
libopencv_videoio.so.4.2:_ZNK2cv12VideoCapture8isOpenedEv
libopencv_videoio.so.4.2:_ZNK2cv14DefaultDeleterI13CvVideoWriterEclEPS1_
libopencv_videoio.so.4.2:_ZNK2cv14DefaultDeleterI9CvCaptureEclEPS1_
libopencv_videoio.so.4.2:_ZNK2cv17AVIWriteContainer12getStreamPosEv
libopencv_videoio.so.4.2:_ZNK2cv17AVIWriteContainer14isOpenedStreamEv
libopencv_videoio.so.4.2:cvCreateCameraCapture
libopencv_videoio.so.4.2:cvCreateFileCapture
libopencv_videoio.so.4.2:cvCreateFileCaptureWithPreference
libopencv_videoio.so.4.2:cvCreateVideoWriter
libopencv_videoio.so.4.2:cvGetCaptureDomain
libopencv_videoio.so.4.2:cvGetCaptureProperty
libopencv_videoio.so.4.2:cvGrabFrame
libopencv_videoio.so.4.2:cvQueryFrame
libopencv_videoio.so.4.2:cvReleaseCapture
libopencv_videoio.so.4.2:cvReleaseVideoWriter
libopencv_videoio.so.4.2:cvRetrieveFrame
libopencv_videoio.so.4.2:cvSetCaptureProperty
libopencv_videoio.so.4.2:cvWriteFrame
